   1               		.file	"lufa.c"
   2               	__SP_H__ = 0x3e
   3               	__SP_L__ = 0x3d
   4               	__SREG__ = 0x3f
   5               	__tmp_reg__ = 0
   6               	__zero_reg__ = 1
   7               		.text
   8               	.Ltext0:
   9               		.cfi_sections	.debug_frame
  10               		.section	.text.keyboard_leds,"ax",@progbits
  12               	keyboard_leds:
  13               	.LFB112:
  14               		.file 1 "../../protocol/lufa/lufa.c"
   1:../../protocol/lufa/lufa.c **** /* 
   2:../../protocol/lufa/lufa.c ****  * Copyright 2012 Jun Wako <wakojun@gmail.com>
   3:../../protocol/lufa/lufa.c ****  * This file is based on:
   4:../../protocol/lufa/lufa.c ****  *     LUFA-120219/Demos/Device/Lowlevel/KeyboardMouse
   5:../../protocol/lufa/lufa.c ****  *     LUFA-120219/Demos/Device/Lowlevel/GenericHID
   6:../../protocol/lufa/lufa.c ****  */
   7:../../protocol/lufa/lufa.c **** 
   8:../../protocol/lufa/lufa.c **** /*
   9:../../protocol/lufa/lufa.c ****              LUFA Library
  10:../../protocol/lufa/lufa.c ****      Copyright (C) Dean Camera, 2012.
  11:../../protocol/lufa/lufa.c **** 
  12:../../protocol/lufa/lufa.c ****   dean [at] fourwalledcubicle [dot] com
  13:../../protocol/lufa/lufa.c ****            www.lufa-lib.org
  14:../../protocol/lufa/lufa.c **** */
  15:../../protocol/lufa/lufa.c **** 
  16:../../protocol/lufa/lufa.c **** /*
  17:../../protocol/lufa/lufa.c ****   Copyright 2012  Dean Camera (dean [at] fourwalledcubicle [dot] com)
  18:../../protocol/lufa/lufa.c ****   Copyright 2010  Denver Gingerich (denver [at] ossguy [dot] com)
  19:../../protocol/lufa/lufa.c **** 
  20:../../protocol/lufa/lufa.c ****   Permission to use, copy, modify, distribute, and sell this
  21:../../protocol/lufa/lufa.c ****   software and its documentation for any purpose is hereby granted
  22:../../protocol/lufa/lufa.c ****   without fee, provided that the above copyright notice appear in
  23:../../protocol/lufa/lufa.c ****   all copies and that both that the copyright notice and this
  24:../../protocol/lufa/lufa.c ****   permission notice and warranty disclaimer appear in supporting
  25:../../protocol/lufa/lufa.c ****   documentation, and that the name of the author not be used in
  26:../../protocol/lufa/lufa.c ****   advertising or publicity pertaining to distribution of the
  27:../../protocol/lufa/lufa.c ****   software without specific, written prior permission.
  28:../../protocol/lufa/lufa.c **** 
  29:../../protocol/lufa/lufa.c ****   The author disclaim all warranties with regard to this
  30:../../protocol/lufa/lufa.c ****   software, including all implied warranties of merchantability
  31:../../protocol/lufa/lufa.c ****   and fitness.  In no event shall the author be liable for any
  32:../../protocol/lufa/lufa.c ****   special, indirect or consequential damages or any damages
  33:../../protocol/lufa/lufa.c ****   whatsoever resulting from loss of use, data or profits, whether
  34:../../protocol/lufa/lufa.c ****   in an action of contract, negligence or other tortious action,
  35:../../protocol/lufa/lufa.c ****   arising out of or in connection with the use or performance of
  36:../../protocol/lufa/lufa.c ****   this software.
  37:../../protocol/lufa/lufa.c **** */
  38:../../protocol/lufa/lufa.c **** 
  39:../../protocol/lufa/lufa.c **** #include "report.h"
  40:../../protocol/lufa/lufa.c **** #include "host.h"
  41:../../protocol/lufa/lufa.c **** #include "host_driver.h"
  42:../../protocol/lufa/lufa.c **** #include "keyboard.h"
  43:../../protocol/lufa/lufa.c **** #include "action.h"
  44:../../protocol/lufa/lufa.c **** #include "led.h"
  45:../../protocol/lufa/lufa.c **** #include "sendchar.h"
  46:../../protocol/lufa/lufa.c **** #include "debug.h"
  47:../../protocol/lufa/lufa.c **** #ifdef SLEEP_LED_ENABLE
  48:../../protocol/lufa/lufa.c **** #include "sleep_led.h"
  49:../../protocol/lufa/lufa.c **** #endif
  50:../../protocol/lufa/lufa.c **** #include "suspend.h"
  51:../../protocol/lufa/lufa.c **** 
  52:../../protocol/lufa/lufa.c **** #include "descriptor.h"
  53:../../protocol/lufa/lufa.c **** #include "lufa.h"
  54:../../protocol/lufa/lufa.c **** 
  55:../../protocol/lufa/lufa.c **** uint8_t keyboard_idle = 0;
  56:../../protocol/lufa/lufa.c **** uint8_t keyboard_protocol = 1;
  57:../../protocol/lufa/lufa.c **** static uint8_t keyboard_led_stats = 0;
  58:../../protocol/lufa/lufa.c **** 
  59:../../protocol/lufa/lufa.c **** static report_keyboard_t keyboard_report_sent;
  60:../../protocol/lufa/lufa.c **** 
  61:../../protocol/lufa/lufa.c **** 
  62:../../protocol/lufa/lufa.c **** /* Host driver */
  63:../../protocol/lufa/lufa.c **** static uint8_t keyboard_leds(void);
  64:../../protocol/lufa/lufa.c **** static void send_keyboard(report_keyboard_t *report);
  65:../../protocol/lufa/lufa.c **** static void send_mouse(report_mouse_t *report);
  66:../../protocol/lufa/lufa.c **** static void send_system(uint16_t data);
  67:../../protocol/lufa/lufa.c **** static void send_consumer(uint16_t data);
  68:../../protocol/lufa/lufa.c **** host_driver_t lufa_driver = {
  69:../../protocol/lufa/lufa.c ****     keyboard_leds,
  70:../../protocol/lufa/lufa.c ****     send_keyboard,
  71:../../protocol/lufa/lufa.c ****     send_mouse,
  72:../../protocol/lufa/lufa.c ****     send_system,
  73:../../protocol/lufa/lufa.c ****     send_consumer
  74:../../protocol/lufa/lufa.c **** };
  75:../../protocol/lufa/lufa.c **** 
  76:../../protocol/lufa/lufa.c **** 
  77:../../protocol/lufa/lufa.c **** /*******************************************************************************
  78:../../protocol/lufa/lufa.c ****  * Console
  79:../../protocol/lufa/lufa.c ****  ******************************************************************************/
  80:../../protocol/lufa/lufa.c **** #ifdef CONSOLE_ENABLE
  81:../../protocol/lufa/lufa.c **** static void Console_Task(void)
  82:../../protocol/lufa/lufa.c **** {
  83:../../protocol/lufa/lufa.c ****     /* Device must be connected and configured for the task to run */
  84:../../protocol/lufa/lufa.c ****     if (USB_DeviceState != DEVICE_STATE_Configured)
  85:../../protocol/lufa/lufa.c ****         return;
  86:../../protocol/lufa/lufa.c **** 
  87:../../protocol/lufa/lufa.c ****     uint8_t ep = Endpoint_GetCurrentEndpoint();
  88:../../protocol/lufa/lufa.c **** 
  89:../../protocol/lufa/lufa.c **** #if 0
  90:../../protocol/lufa/lufa.c ****     // TODO: impl receivechar()/recvchar()
  91:../../protocol/lufa/lufa.c ****     Endpoint_SelectEndpoint(CONSOLE_OUT_EPNUM);
  92:../../protocol/lufa/lufa.c **** 
  93:../../protocol/lufa/lufa.c ****     /* Check to see if a packet has been sent from the host */
  94:../../protocol/lufa/lufa.c ****     if (Endpoint_IsOUTReceived())
  95:../../protocol/lufa/lufa.c ****     {
  96:../../protocol/lufa/lufa.c ****         /* Check to see if the packet contains data */
  97:../../protocol/lufa/lufa.c ****         if (Endpoint_IsReadWriteAllowed())
  98:../../protocol/lufa/lufa.c ****         {
  99:../../protocol/lufa/lufa.c ****             /* Create a temporary buffer to hold the read in report from the host */
 100:../../protocol/lufa/lufa.c ****             uint8_t ConsoleData[CONSOLE_EPSIZE];
 101:../../protocol/lufa/lufa.c ****  
 102:../../protocol/lufa/lufa.c ****             /* Read Console Report Data */
 103:../../protocol/lufa/lufa.c ****             Endpoint_Read_Stream_LE(&ConsoleData, sizeof(ConsoleData), NULL);
 104:../../protocol/lufa/lufa.c ****  
 105:../../protocol/lufa/lufa.c ****             /* Process Console Report Data */
 106:../../protocol/lufa/lufa.c ****             //ProcessConsoleHIDReport(ConsoleData);
 107:../../protocol/lufa/lufa.c ****         }
 108:../../protocol/lufa/lufa.c **** 
 109:../../protocol/lufa/lufa.c ****         /* Finalize the stream transfer to send the last packet */
 110:../../protocol/lufa/lufa.c ****         Endpoint_ClearOUT();
 111:../../protocol/lufa/lufa.c ****     }
 112:../../protocol/lufa/lufa.c **** #endif
 113:../../protocol/lufa/lufa.c **** 
 114:../../protocol/lufa/lufa.c ****     /* IN packet */
 115:../../protocol/lufa/lufa.c ****     Endpoint_SelectEndpoint(CONSOLE_IN_EPNUM);
 116:../../protocol/lufa/lufa.c ****     if (!Endpoint_IsEnabled() || !Endpoint_IsConfigured()) {
 117:../../protocol/lufa/lufa.c ****         Endpoint_SelectEndpoint(ep);
 118:../../protocol/lufa/lufa.c ****         return;
 119:../../protocol/lufa/lufa.c ****     }
 120:../../protocol/lufa/lufa.c **** 
 121:../../protocol/lufa/lufa.c ****     // fill empty bank
 122:../../protocol/lufa/lufa.c ****     while (Endpoint_IsReadWriteAllowed())
 123:../../protocol/lufa/lufa.c ****         Endpoint_Write_8(0);
 124:../../protocol/lufa/lufa.c **** 
 125:../../protocol/lufa/lufa.c ****     // flash senchar packet
 126:../../protocol/lufa/lufa.c ****     if (Endpoint_IsINReady()) {
 127:../../protocol/lufa/lufa.c ****         Endpoint_ClearIN();
 128:../../protocol/lufa/lufa.c ****     }
 129:../../protocol/lufa/lufa.c **** 
 130:../../protocol/lufa/lufa.c ****     Endpoint_SelectEndpoint(ep);
 131:../../protocol/lufa/lufa.c **** }
 132:../../protocol/lufa/lufa.c **** #else
 133:../../protocol/lufa/lufa.c **** static void Console_Task(void)
 134:../../protocol/lufa/lufa.c **** {
 135:../../protocol/lufa/lufa.c **** }
 136:../../protocol/lufa/lufa.c **** #endif
 137:../../protocol/lufa/lufa.c **** 
 138:../../protocol/lufa/lufa.c **** 
 139:../../protocol/lufa/lufa.c **** /*******************************************************************************
 140:../../protocol/lufa/lufa.c ****  * USB Events
 141:../../protocol/lufa/lufa.c ****  ******************************************************************************/
 142:../../protocol/lufa/lufa.c **** /*
 143:../../protocol/lufa/lufa.c ****  * Event Order of Plug in:
 144:../../protocol/lufa/lufa.c ****  * 0) EVENT_USB_Device_Connect
 145:../../protocol/lufa/lufa.c ****  * 1) EVENT_USB_Device_Suspend
 146:../../protocol/lufa/lufa.c ****  * 2) EVENT_USB_Device_Reset
 147:../../protocol/lufa/lufa.c ****  * 3) EVENT_USB_Device_Wake
 148:../../protocol/lufa/lufa.c **** */
 149:../../protocol/lufa/lufa.c **** void EVENT_USB_Device_Connect(void)
 150:../../protocol/lufa/lufa.c **** {
 151:../../protocol/lufa/lufa.c **** }
 152:../../protocol/lufa/lufa.c **** 
 153:../../protocol/lufa/lufa.c **** void EVENT_USB_Device_Disconnect(void)
 154:../../protocol/lufa/lufa.c **** {
 155:../../protocol/lufa/lufa.c **** }
 156:../../protocol/lufa/lufa.c **** 
 157:../../protocol/lufa/lufa.c **** void EVENT_USB_Device_Reset(void)
 158:../../protocol/lufa/lufa.c **** {
 159:../../protocol/lufa/lufa.c **** }
 160:../../protocol/lufa/lufa.c **** 
 161:../../protocol/lufa/lufa.c **** void EVENT_USB_Device_Suspend()
 162:../../protocol/lufa/lufa.c **** {
 163:../../protocol/lufa/lufa.c **** #ifdef SLEEP_LED_ENABLE
 164:../../protocol/lufa/lufa.c ****     sleep_led_enable();
 165:../../protocol/lufa/lufa.c **** #endif
 166:../../protocol/lufa/lufa.c **** }
 167:../../protocol/lufa/lufa.c **** 
 168:../../protocol/lufa/lufa.c **** void EVENT_USB_Device_WakeUp()
 169:../../protocol/lufa/lufa.c **** {
 170:../../protocol/lufa/lufa.c ****     suspend_wakeup_init();
 171:../../protocol/lufa/lufa.c **** 
 172:../../protocol/lufa/lufa.c **** #ifdef SLEEP_LED_ENABLE
 173:../../protocol/lufa/lufa.c ****     sleep_led_disable();
 174:../../protocol/lufa/lufa.c ****     // NOTE: converters may not accept this
 175:../../protocol/lufa/lufa.c ****     led_set(host_keyboard_leds());
 176:../../protocol/lufa/lufa.c **** #endif
 177:../../protocol/lufa/lufa.c **** }
 178:../../protocol/lufa/lufa.c **** 
 179:../../protocol/lufa/lufa.c **** void EVENT_USB_Device_StartOfFrame(void)
 180:../../protocol/lufa/lufa.c **** {
 181:../../protocol/lufa/lufa.c ****     Console_Task();
 182:../../protocol/lufa/lufa.c **** }
 183:../../protocol/lufa/lufa.c **** 
 184:../../protocol/lufa/lufa.c **** /** Event handler for the USB_ConfigurationChanged event.
 185:../../protocol/lufa/lufa.c ****  * This is fired when the host sets the current configuration of the USB device after enumeration.
 186:../../protocol/lufa/lufa.c ****  */
 187:../../protocol/lufa/lufa.c **** void EVENT_USB_Device_ConfigurationChanged(void)
 188:../../protocol/lufa/lufa.c **** {
 189:../../protocol/lufa/lufa.c ****     bool ConfigSuccess = true;
 190:../../protocol/lufa/lufa.c **** 
 191:../../protocol/lufa/lufa.c ****     /* Setup Keyboard HID Report Endpoints */
 192:../../protocol/lufa/lufa.c ****     ConfigSuccess &= ENDPOINT_CONFIG(KEYBOARD_IN_EPNUM, EP_TYPE_INTERRUPT, ENDPOINT_DIR_IN,
 193:../../protocol/lufa/lufa.c ****                                      KEYBOARD_EPSIZE, ENDPOINT_BANK_SINGLE);
 194:../../protocol/lufa/lufa.c **** 
 195:../../protocol/lufa/lufa.c **** #ifdef MOUSE_ENABLE
 196:../../protocol/lufa/lufa.c ****     /* Setup Mouse HID Report Endpoint */
 197:../../protocol/lufa/lufa.c ****     ConfigSuccess &= ENDPOINT_CONFIG(MOUSE_IN_EPNUM, EP_TYPE_INTERRUPT, ENDPOINT_DIR_IN,
 198:../../protocol/lufa/lufa.c ****                                      MOUSE_EPSIZE, ENDPOINT_BANK_SINGLE);
 199:../../protocol/lufa/lufa.c **** #endif
 200:../../protocol/lufa/lufa.c **** 
 201:../../protocol/lufa/lufa.c **** #ifdef EXTRAKEY_ENABLE
 202:../../protocol/lufa/lufa.c ****     /* Setup Extra HID Report Endpoint */
 203:../../protocol/lufa/lufa.c ****     ConfigSuccess &= ENDPOINT_CONFIG(EXTRAKEY_IN_EPNUM, EP_TYPE_INTERRUPT, ENDPOINT_DIR_IN,
 204:../../protocol/lufa/lufa.c ****                                      EXTRAKEY_EPSIZE, ENDPOINT_BANK_SINGLE);
 205:../../protocol/lufa/lufa.c **** #endif
 206:../../protocol/lufa/lufa.c **** 
 207:../../protocol/lufa/lufa.c **** #ifdef CONSOLE_ENABLE
 208:../../protocol/lufa/lufa.c ****     /* Setup Console HID Report Endpoints */
 209:../../protocol/lufa/lufa.c ****     ConfigSuccess &= ENDPOINT_CONFIG(CONSOLE_IN_EPNUM, EP_TYPE_INTERRUPT, ENDPOINT_DIR_IN,
 210:../../protocol/lufa/lufa.c ****                                      CONSOLE_EPSIZE, ENDPOINT_BANK_DOUBLE);
 211:../../protocol/lufa/lufa.c **** #if 0
 212:../../protocol/lufa/lufa.c ****     ConfigSuccess &= ENDPOINT_CONFIG(CONSOLE_OUT_EPNUM, EP_TYPE_INTERRUPT, ENDPOINT_DIR_OUT,
 213:../../protocol/lufa/lufa.c ****                                      CONSOLE_EPSIZE, ENDPOINT_BANK_SINGLE);
 214:../../protocol/lufa/lufa.c **** #endif
 215:../../protocol/lufa/lufa.c **** #endif
 216:../../protocol/lufa/lufa.c **** 
 217:../../protocol/lufa/lufa.c **** #ifdef NKRO_ENABLE
 218:../../protocol/lufa/lufa.c ****     /* Setup NKRO HID Report Endpoints */
 219:../../protocol/lufa/lufa.c ****     ConfigSuccess &= ENDPOINT_CONFIG(NKRO_IN_EPNUM, EP_TYPE_INTERRUPT, ENDPOINT_DIR_IN,
 220:../../protocol/lufa/lufa.c ****                                      NKRO_EPSIZE, ENDPOINT_BANK_SINGLE);
 221:../../protocol/lufa/lufa.c **** #endif
 222:../../protocol/lufa/lufa.c **** }
 223:../../protocol/lufa/lufa.c **** 
 224:../../protocol/lufa/lufa.c **** /*
 225:../../protocol/lufa/lufa.c **** Appendix G: HID Request Support Requirements
 226:../../protocol/lufa/lufa.c **** 
 227:../../protocol/lufa/lufa.c **** The following table enumerates the requests that need to be supported by various types of HID class
 228:../../protocol/lufa/lufa.c **** 
 229:../../protocol/lufa/lufa.c **** Device type     GetReport   SetReport   GetIdle     SetIdle     GetProtocol SetProtocol
 230:../../protocol/lufa/lufa.c **** ------------------------------------------------------------------------------------------
 231:../../protocol/lufa/lufa.c **** Boot Mouse      Required    Optional    Optional    Optional    Required    Required
 232:../../protocol/lufa/lufa.c **** Non-Boot Mouse  Required    Optional    Optional    Optional    Optional    Optional
 233:../../protocol/lufa/lufa.c **** Boot Keyboard   Required    Optional    Required    Required    Required    Required
 234:../../protocol/lufa/lufa.c **** Non-Boot Keybrd Required    Optional    Required    Required    Optional    Optional
 235:../../protocol/lufa/lufa.c **** Other Device    Required    Optional    Optional    Optional    Optional    Optional
 236:../../protocol/lufa/lufa.c **** */
 237:../../protocol/lufa/lufa.c **** /** Event handler for the USB_ControlRequest event.
 238:../../protocol/lufa/lufa.c ****  *  This is fired before passing along unhandled control requests to the library for processing int
 239:../../protocol/lufa/lufa.c ****  */
 240:../../protocol/lufa/lufa.c **** void EVENT_USB_Device_ControlRequest(void)
 241:../../protocol/lufa/lufa.c **** {
 242:../../protocol/lufa/lufa.c ****     uint8_t* ReportData = NULL;
 243:../../protocol/lufa/lufa.c ****     uint8_t  ReportSize = 0;
 244:../../protocol/lufa/lufa.c **** 
 245:../../protocol/lufa/lufa.c ****     /* Handle HID Class specific requests */
 246:../../protocol/lufa/lufa.c ****     switch (USB_ControlRequest.bRequest)
 247:../../protocol/lufa/lufa.c ****     {
 248:../../protocol/lufa/lufa.c ****         case HID_REQ_GetReport:
 249:../../protocol/lufa/lufa.c ****             if (USB_ControlRequest.bmRequestType == (REQDIR_DEVICETOHOST | REQTYPE_CLASS | REQREC_I
 250:../../protocol/lufa/lufa.c ****             {
 251:../../protocol/lufa/lufa.c ****                 Endpoint_ClearSETUP();
 252:../../protocol/lufa/lufa.c **** 
 253:../../protocol/lufa/lufa.c ****                 // Interface
 254:../../protocol/lufa/lufa.c ****                 switch (USB_ControlRequest.wIndex) {
 255:../../protocol/lufa/lufa.c ****                 case KEYBOARD_INTERFACE:
 256:../../protocol/lufa/lufa.c ****                     // TODO: test/check
 257:../../protocol/lufa/lufa.c ****                     ReportData = (uint8_t*)&keyboard_report_sent;
 258:../../protocol/lufa/lufa.c ****                     ReportSize = sizeof(keyboard_report_sent);
 259:../../protocol/lufa/lufa.c ****                     break;
 260:../../protocol/lufa/lufa.c ****                 }
 261:../../protocol/lufa/lufa.c **** 
 262:../../protocol/lufa/lufa.c ****                 /* Write the report data to the control endpoint */
 263:../../protocol/lufa/lufa.c ****                 Endpoint_Write_Control_Stream_LE(ReportData, ReportSize);
 264:../../protocol/lufa/lufa.c ****                 Endpoint_ClearOUT();
 265:../../protocol/lufa/lufa.c ****             }
 266:../../protocol/lufa/lufa.c **** 
 267:../../protocol/lufa/lufa.c ****             break;
 268:../../protocol/lufa/lufa.c ****         case HID_REQ_SetReport:
 269:../../protocol/lufa/lufa.c ****             if (USB_ControlRequest.bmRequestType == (REQDIR_HOSTTODEVICE | REQTYPE_CLASS | REQREC_I
 270:../../protocol/lufa/lufa.c ****             {
 271:../../protocol/lufa/lufa.c **** 
 272:../../protocol/lufa/lufa.c ****                 // Interface
 273:../../protocol/lufa/lufa.c ****                 switch (USB_ControlRequest.wIndex) {
 274:../../protocol/lufa/lufa.c ****                 case KEYBOARD_INTERFACE:
 275:../../protocol/lufa/lufa.c **** #ifdef NKRO_ENABLE
 276:../../protocol/lufa/lufa.c ****                 case NKRO_INTERFACE:
 277:../../protocol/lufa/lufa.c **** #endif
 278:../../protocol/lufa/lufa.c ****                     Endpoint_ClearSETUP();
 279:../../protocol/lufa/lufa.c **** 
 280:../../protocol/lufa/lufa.c ****                     while (!(Endpoint_IsOUTReceived())) {
 281:../../protocol/lufa/lufa.c ****                         if (USB_DeviceState == DEVICE_STATE_Unattached)
 282:../../protocol/lufa/lufa.c ****                           return;
 283:../../protocol/lufa/lufa.c ****                     }
 284:../../protocol/lufa/lufa.c ****                     keyboard_led_stats = Endpoint_Read_8();
 285:../../protocol/lufa/lufa.c **** 
 286:../../protocol/lufa/lufa.c ****                     Endpoint_ClearOUT();
 287:../../protocol/lufa/lufa.c ****                     Endpoint_ClearStatusStage();
 288:../../protocol/lufa/lufa.c ****                     break;
 289:../../protocol/lufa/lufa.c ****                 }
 290:../../protocol/lufa/lufa.c **** 
 291:../../protocol/lufa/lufa.c ****             }
 292:../../protocol/lufa/lufa.c **** 
 293:../../protocol/lufa/lufa.c ****             break;
 294:../../protocol/lufa/lufa.c **** 
 295:../../protocol/lufa/lufa.c ****         case HID_REQ_GetProtocol:
 296:../../protocol/lufa/lufa.c ****             if (USB_ControlRequest.bmRequestType == (REQDIR_DEVICETOHOST | REQTYPE_CLASS | REQREC_I
 297:../../protocol/lufa/lufa.c ****             {
 298:../../protocol/lufa/lufa.c ****                 if (USB_ControlRequest.wIndex == KEYBOARD_INTERFACE) {
 299:../../protocol/lufa/lufa.c ****                     Endpoint_ClearSETUP();
 300:../../protocol/lufa/lufa.c ****                     while (!(Endpoint_IsINReady()));
 301:../../protocol/lufa/lufa.c ****                     Endpoint_Write_8(keyboard_protocol);
 302:../../protocol/lufa/lufa.c ****                     Endpoint_ClearIN();
 303:../../protocol/lufa/lufa.c ****                     Endpoint_ClearStatusStage();
 304:../../protocol/lufa/lufa.c ****                 }
 305:../../protocol/lufa/lufa.c ****             }
 306:../../protocol/lufa/lufa.c **** 
 307:../../protocol/lufa/lufa.c ****             break;
 308:../../protocol/lufa/lufa.c ****         case HID_REQ_SetProtocol:
 309:../../protocol/lufa/lufa.c ****             if (USB_ControlRequest.bmRequestType == (REQDIR_HOSTTODEVICE | REQTYPE_CLASS | REQREC_I
 310:../../protocol/lufa/lufa.c ****             {
 311:../../protocol/lufa/lufa.c ****                 if (USB_ControlRequest.wIndex == KEYBOARD_INTERFACE) {
 312:../../protocol/lufa/lufa.c ****                     Endpoint_ClearSETUP();
 313:../../protocol/lufa/lufa.c ****                     Endpoint_ClearStatusStage();
 314:../../protocol/lufa/lufa.c **** 
 315:../../protocol/lufa/lufa.c ****                     keyboard_protocol = ((USB_ControlRequest.wValue & 0xFF) != 0x00);
 316:../../protocol/lufa/lufa.c **** #ifdef NKRO_ENABLE
 317:../../protocol/lufa/lufa.c ****                     keyboard_nkro = !!keyboard_protocol;
 318:../../protocol/lufa/lufa.c **** #endif
 319:../../protocol/lufa/lufa.c ****                     clear_keyboard();
 320:../../protocol/lufa/lufa.c ****                 }
 321:../../protocol/lufa/lufa.c ****             }
 322:../../protocol/lufa/lufa.c **** 
 323:../../protocol/lufa/lufa.c ****             break;
 324:../../protocol/lufa/lufa.c ****         case HID_REQ_SetIdle:
 325:../../protocol/lufa/lufa.c ****             if (USB_ControlRequest.bmRequestType == (REQDIR_HOSTTODEVICE | REQTYPE_CLASS | REQREC_I
 326:../../protocol/lufa/lufa.c ****             {
 327:../../protocol/lufa/lufa.c ****                 Endpoint_ClearSETUP();
 328:../../protocol/lufa/lufa.c ****                 Endpoint_ClearStatusStage();
 329:../../protocol/lufa/lufa.c **** 
 330:../../protocol/lufa/lufa.c ****                 keyboard_idle = ((USB_ControlRequest.wValue & 0xFF00) >> 8);
 331:../../protocol/lufa/lufa.c ****             }
 332:../../protocol/lufa/lufa.c **** 
 333:../../protocol/lufa/lufa.c ****             break;
 334:../../protocol/lufa/lufa.c ****         case HID_REQ_GetIdle:
 335:../../protocol/lufa/lufa.c ****             if (USB_ControlRequest.bmRequestType == (REQDIR_DEVICETOHOST | REQTYPE_CLASS | REQREC_I
 336:../../protocol/lufa/lufa.c ****             {
 337:../../protocol/lufa/lufa.c ****                 Endpoint_ClearSETUP();
 338:../../protocol/lufa/lufa.c ****                 while (!(Endpoint_IsINReady()));
 339:../../protocol/lufa/lufa.c ****                 Endpoint_Write_8(keyboard_idle);
 340:../../protocol/lufa/lufa.c ****                 Endpoint_ClearIN();
 341:../../protocol/lufa/lufa.c ****                 Endpoint_ClearStatusStage();
 342:../../protocol/lufa/lufa.c ****             }
 343:../../protocol/lufa/lufa.c **** 
 344:../../protocol/lufa/lufa.c ****             break;
 345:../../protocol/lufa/lufa.c ****     }
 346:../../protocol/lufa/lufa.c **** }
 347:../../protocol/lufa/lufa.c **** 
 348:../../protocol/lufa/lufa.c **** /*******************************************************************************
 349:../../protocol/lufa/lufa.c ****  * Host driver 
 350:../../protocol/lufa/lufa.c ****  ******************************************************************************/
 351:../../protocol/lufa/lufa.c **** static uint8_t keyboard_leds(void)
 352:../../protocol/lufa/lufa.c **** {
  15               		.loc 1 352 0
  16               		.cfi_startproc
  17               	/* prologue: function */
  18               	/* frame size = 0 */
  19               	/* stack size = 0 */
  20               	.L__stack_usage = 0
 353:../../protocol/lufa/lufa.c ****     return keyboard_led_stats;
 354:../../protocol/lufa/lufa.c **** }
  21               		.loc 1 354 0
  22 0000 8091 0000 		lds r24,keyboard_led_stats
  23 0004 0895      		ret
  24               		.cfi_endproc
  25               	.LFE112:
  27               		.section	.text.send_consumer,"ax",@progbits
  29               	send_consumer:
  30               	.LFB116:
 355:../../protocol/lufa/lufa.c **** 
 356:../../protocol/lufa/lufa.c **** static void send_keyboard(report_keyboard_t *report)
 357:../../protocol/lufa/lufa.c **** {
 358:../../protocol/lufa/lufa.c ****     uint8_t timeout = 255;
 359:../../protocol/lufa/lufa.c **** 
 360:../../protocol/lufa/lufa.c ****     if (USB_DeviceState != DEVICE_STATE_Configured)
 361:../../protocol/lufa/lufa.c ****         return;
 362:../../protocol/lufa/lufa.c **** 
 363:../../protocol/lufa/lufa.c ****     /* Select the Keyboard Report Endpoint */
 364:../../protocol/lufa/lufa.c **** #ifdef NKRO_ENABLE
 365:../../protocol/lufa/lufa.c ****     if (keyboard_nkro) {
 366:../../protocol/lufa/lufa.c ****         /* Report protocol - NKRO */
 367:../../protocol/lufa/lufa.c ****         Endpoint_SelectEndpoint(NKRO_IN_EPNUM);
 368:../../protocol/lufa/lufa.c **** 
 369:../../protocol/lufa/lufa.c ****         /* Check if write ready for a polling interval around 1ms */
 370:../../protocol/lufa/lufa.c ****         while (timeout-- && !Endpoint_IsReadWriteAllowed()) _delay_us(4);
 371:../../protocol/lufa/lufa.c ****         if (!Endpoint_IsReadWriteAllowed()) return;
 372:../../protocol/lufa/lufa.c **** 
 373:../../protocol/lufa/lufa.c ****         /* Write Keyboard Report Data */
 374:../../protocol/lufa/lufa.c ****         Endpoint_Write_Stream_LE(report, NKRO_EPSIZE, NULL);
 375:../../protocol/lufa/lufa.c ****     }
 376:../../protocol/lufa/lufa.c ****     else
 377:../../protocol/lufa/lufa.c **** #endif
 378:../../protocol/lufa/lufa.c ****     {
 379:../../protocol/lufa/lufa.c ****         /* Boot protocol */
 380:../../protocol/lufa/lufa.c ****         Endpoint_SelectEndpoint(KEYBOARD_IN_EPNUM);
 381:../../protocol/lufa/lufa.c **** 
 382:../../protocol/lufa/lufa.c ****         /* Check if write ready for a polling interval around 10ms */
 383:../../protocol/lufa/lufa.c ****         while (timeout-- && !Endpoint_IsReadWriteAllowed()) _delay_us(40);
 384:../../protocol/lufa/lufa.c ****         if (!Endpoint_IsReadWriteAllowed()) return;
 385:../../protocol/lufa/lufa.c **** 
 386:../../protocol/lufa/lufa.c ****         /* Write Keyboard Report Data */
 387:../../protocol/lufa/lufa.c ****         Endpoint_Write_Stream_LE(report, KEYBOARD_EPSIZE, NULL);
 388:../../protocol/lufa/lufa.c ****     }
 389:../../protocol/lufa/lufa.c **** 
 390:../../protocol/lufa/lufa.c ****     /* Finalize the stream transfer to send the last packet */
 391:../../protocol/lufa/lufa.c ****     Endpoint_ClearIN();
 392:../../protocol/lufa/lufa.c **** 
 393:../../protocol/lufa/lufa.c ****     keyboard_report_sent = *report;
 394:../../protocol/lufa/lufa.c **** }
 395:../../protocol/lufa/lufa.c **** 
 396:../../protocol/lufa/lufa.c **** static void send_mouse(report_mouse_t *report)
 397:../../protocol/lufa/lufa.c **** {
 398:../../protocol/lufa/lufa.c **** #ifdef MOUSE_ENABLE
 399:../../protocol/lufa/lufa.c ****     uint8_t timeout = 255;
 400:../../protocol/lufa/lufa.c **** 
 401:../../protocol/lufa/lufa.c ****     if (USB_DeviceState != DEVICE_STATE_Configured)
 402:../../protocol/lufa/lufa.c ****         return;
 403:../../protocol/lufa/lufa.c **** 
 404:../../protocol/lufa/lufa.c ****     /* Select the Mouse Report Endpoint */
 405:../../protocol/lufa/lufa.c ****     Endpoint_SelectEndpoint(MOUSE_IN_EPNUM);
 406:../../protocol/lufa/lufa.c **** 
 407:../../protocol/lufa/lufa.c ****     /* Check if write ready for a polling interval around 10ms */
 408:../../protocol/lufa/lufa.c ****     while (timeout-- && !Endpoint_IsReadWriteAllowed()) _delay_us(40);
 409:../../protocol/lufa/lufa.c ****     if (!Endpoint_IsReadWriteAllowed()) return;
 410:../../protocol/lufa/lufa.c **** 
 411:../../protocol/lufa/lufa.c ****     /* Write Mouse Report Data */
 412:../../protocol/lufa/lufa.c ****     Endpoint_Write_Stream_LE(report, sizeof(report_mouse_t), NULL);
 413:../../protocol/lufa/lufa.c **** 
 414:../../protocol/lufa/lufa.c ****     /* Finalize the stream transfer to send the last packet */
 415:../../protocol/lufa/lufa.c ****     Endpoint_ClearIN();
 416:../../protocol/lufa/lufa.c **** #endif
 417:../../protocol/lufa/lufa.c **** }
 418:../../protocol/lufa/lufa.c **** 
 419:../../protocol/lufa/lufa.c **** static void send_system(uint16_t data)
 420:../../protocol/lufa/lufa.c **** {
 421:../../protocol/lufa/lufa.c ****     uint8_t timeout = 255;
 422:../../protocol/lufa/lufa.c **** 
 423:../../protocol/lufa/lufa.c ****     if (USB_DeviceState != DEVICE_STATE_Configured)
 424:../../protocol/lufa/lufa.c ****         return;
 425:../../protocol/lufa/lufa.c **** 
 426:../../protocol/lufa/lufa.c ****     report_extra_t r = {
 427:../../protocol/lufa/lufa.c ****         .report_id = REPORT_ID_SYSTEM,
 428:../../protocol/lufa/lufa.c ****         .usage = data
 429:../../protocol/lufa/lufa.c ****     };
 430:../../protocol/lufa/lufa.c ****     Endpoint_SelectEndpoint(EXTRAKEY_IN_EPNUM);
 431:../../protocol/lufa/lufa.c **** 
 432:../../protocol/lufa/lufa.c ****     /* Check if write ready for a polling interval around 10ms */
 433:../../protocol/lufa/lufa.c ****     while (timeout-- && !Endpoint_IsReadWriteAllowed()) _delay_us(40);
 434:../../protocol/lufa/lufa.c ****     if (!Endpoint_IsReadWriteAllowed()) return;
 435:../../protocol/lufa/lufa.c **** 
 436:../../protocol/lufa/lufa.c ****     Endpoint_Write_Stream_LE(&r, sizeof(report_extra_t), NULL);
 437:../../protocol/lufa/lufa.c ****     Endpoint_ClearIN();
 438:../../protocol/lufa/lufa.c **** }
 439:../../protocol/lufa/lufa.c **** 
 440:../../protocol/lufa/lufa.c **** static void send_consumer(uint16_t data)
 441:../../protocol/lufa/lufa.c **** {
  31               		.loc 1 441 0
  32               		.cfi_startproc
  33               	.LVL0:
  34 0000 CF93      		push r28
  35               	.LCFI0:
  36               		.cfi_def_cfa_offset 3
  37               		.cfi_offset 28, -2
  38 0002 DF93      		push r29
  39               	.LCFI1:
  40               		.cfi_def_cfa_offset 4
  41               		.cfi_offset 29, -3
  42 0004 00D0      		rcall .
  43 0006 1F92      		push __zero_reg__
  44               	.LCFI2:
  45               		.cfi_def_cfa_offset 7
  46 0008 CDB7      		in r28,__SP_L__
  47 000a DEB7      		in r29,__SP_H__
  48               	.LCFI3:
  49               		.cfi_def_cfa_register 28
  50               	/* prologue: function */
  51               	/* frame size = 3 */
  52               	/* stack size = 5 */
  53               	.L__stack_usage = 5
  54               	.LVL1:
 442:../../protocol/lufa/lufa.c ****     uint8_t timeout = 255;
 443:../../protocol/lufa/lufa.c **** 
 444:../../protocol/lufa/lufa.c ****     if (USB_DeviceState != DEVICE_STATE_Configured)
  55               		.loc 1 444 0
  56 000c 2091 0000 		lds r18,USB_DeviceState
  57 0010 2430      		cpi r18,lo8(4)
  58 0012 01F4      		brne .L2
 445:../../protocol/lufa/lufa.c ****         return;
 446:../../protocol/lufa/lufa.c **** 
 447:../../protocol/lufa/lufa.c ****     report_extra_t r = {
  59               		.loc 1 447 0
  60 0014 23E0      		ldi r18,lo8(3)
  61 0016 2983      		std Y+1,r18
  62 0018 9B83      		std Y+3,r25
  63 001a 8A83      		std Y+2,r24
  64               	.LVL2:
  65               	.LBB108:
  66               	.LBB109:
  67               		.file 2 "../../protocol/lufa/LUFA-120730/LUFA/Drivers/USB/Core/AVR8/../AVR8/Endpoint_AVR8.h"
   1:../../protocol/lufa/LUFA-120730/LUFA/Drivers/USB/Core/AVR8/../AVR8/Endpoint_AVR8.h **** /*
   2:../../protocol/lufa/LUFA-120730/LUFA/Drivers/USB/Core/AVR8/../AVR8/Endpoint_AVR8.h ****              LUFA Library
   3:../../protocol/lufa/LUFA-120730/LUFA/Drivers/USB/Core/AVR8/../AVR8/Endpoint_AVR8.h ****      Copyright (C) Dean Camera, 2012.
   4:../../protocol/lufa/LUFA-120730/LUFA/Drivers/USB/Core/AVR8/../AVR8/Endpoint_AVR8.h **** 
   5:../../protocol/lufa/LUFA-120730/LUFA/Drivers/USB/Core/AVR8/../AVR8/Endpoint_AVR8.h ****   dean [at] fourwalledcubicle [dot] com
   6:../../protocol/lufa/LUFA-120730/LUFA/Drivers/USB/Core/AVR8/../AVR8/Endpoint_AVR8.h ****            www.lufa-lib.org
   7:../../protocol/lufa/LUFA-120730/LUFA/Drivers/USB/Core/AVR8/../AVR8/Endpoint_AVR8.h **** */
   8:../../protocol/lufa/LUFA-120730/LUFA/Drivers/USB/Core/AVR8/../AVR8/Endpoint_AVR8.h **** 
   9:../../protocol/lufa/LUFA-120730/LUFA/Drivers/USB/Core/AVR8/../AVR8/Endpoint_AVR8.h **** /*
  10:../../protocol/lufa/LUFA-120730/LUFA/Drivers/USB/Core/AVR8/../AVR8/Endpoint_AVR8.h ****   Copyright 2012  Dean Camera (dean [at] fourwalledcubicle [dot] com)
  11:../../protocol/lufa/LUFA-120730/LUFA/Drivers/USB/Core/AVR8/../AVR8/Endpoint_AVR8.h **** 
  12:../../protocol/lufa/LUFA-120730/LUFA/Drivers/USB/Core/AVR8/../AVR8/Endpoint_AVR8.h ****   Permission to use, copy, modify, distribute, and sell this
  13:../../protocol/lufa/LUFA-120730/LUFA/Drivers/USB/Core/AVR8/../AVR8/Endpoint_AVR8.h ****   software and its documentation for any purpose is hereby granted
  14:../../protocol/lufa/LUFA-120730/LUFA/Drivers/USB/Core/AVR8/../AVR8/Endpoint_AVR8.h ****   without fee, provided that the above copyright notice appear in
  15:../../protocol/lufa/LUFA-120730/LUFA/Drivers/USB/Core/AVR8/../AVR8/Endpoint_AVR8.h ****   all copies and that both that the copyright notice and this
  16:../../protocol/lufa/LUFA-120730/LUFA/Drivers/USB/Core/AVR8/../AVR8/Endpoint_AVR8.h ****   permission notice and warranty disclaimer appear in supporting
  17:../../protocol/lufa/LUFA-120730/LUFA/Drivers/USB/Core/AVR8/../AVR8/Endpoint_AVR8.h ****   documentation, and that the name of the author not be used in
  18:../../protocol/lufa/LUFA-120730/LUFA/Drivers/USB/Core/AVR8/../AVR8/Endpoint_AVR8.h ****   advertising or publicity pertaining to distribution of the
  19:../../protocol/lufa/LUFA-120730/LUFA/Drivers/USB/Core/AVR8/../AVR8/Endpoint_AVR8.h ****   software without specific, written prior permission.
  20:../../protocol/lufa/LUFA-120730/LUFA/Drivers/USB/Core/AVR8/../AVR8/Endpoint_AVR8.h **** 
  21:../../protocol/lufa/LUFA-120730/LUFA/Drivers/USB/Core/AVR8/../AVR8/Endpoint_AVR8.h ****   The author disclaim all warranties with regard to this
  22:../../protocol/lufa/LUFA-120730/LUFA/Drivers/USB/Core/AVR8/../AVR8/Endpoint_AVR8.h ****   software, including all implied warranties of merchantability
  23:../../protocol/lufa/LUFA-120730/LUFA/Drivers/USB/Core/AVR8/../AVR8/Endpoint_AVR8.h ****   and fitness.  In no event shall the author be liable for any
  24:../../protocol/lufa/LUFA-120730/LUFA/Drivers/USB/Core/AVR8/../AVR8/Endpoint_AVR8.h ****   special, indirect or consequential damages or any damages
  25:../../protocol/lufa/LUFA-120730/LUFA/Drivers/USB/Core/AVR8/../AVR8/Endpoint_AVR8.h ****   whatsoever resulting from loss of use, data or profits, whether
  26:../../protocol/lufa/LUFA-120730/LUFA/Drivers/USB/Core/AVR8/../AVR8/Endpoint_AVR8.h ****   in an action of contract, negligence or other tortious action,
  27:../../protocol/lufa/LUFA-120730/LUFA/Drivers/USB/Core/AVR8/../AVR8/Endpoint_AVR8.h ****   arising out of or in connection with the use or performance of
  28:../../protocol/lufa/LUFA-120730/LUFA/Drivers/USB/Core/AVR8/../AVR8/Endpoint_AVR8.h ****   this software.
  29:../../protocol/lufa/LUFA-120730/LUFA/Drivers/USB/Core/AVR8/../AVR8/Endpoint_AVR8.h **** */
  30:../../protocol/lufa/LUFA-120730/LUFA/Drivers/USB/Core/AVR8/../AVR8/Endpoint_AVR8.h **** 
  31:../../protocol/lufa/LUFA-120730/LUFA/Drivers/USB/Core/AVR8/../AVR8/Endpoint_AVR8.h **** /** \file
  32:../../protocol/lufa/LUFA-120730/LUFA/Drivers/USB/Core/AVR8/../AVR8/Endpoint_AVR8.h ****  *  \brief USB Endpoint definitions for the AVR8 microcontrollers.
  33:../../protocol/lufa/LUFA-120730/LUFA/Drivers/USB/Core/AVR8/../AVR8/Endpoint_AVR8.h ****  *  \copydetails Group_EndpointManagement_AVR8
  34:../../protocol/lufa/LUFA-120730/LUFA/Drivers/USB/Core/AVR8/../AVR8/Endpoint_AVR8.h ****  *
  35:../../protocol/lufa/LUFA-120730/LUFA/Drivers/USB/Core/AVR8/../AVR8/Endpoint_AVR8.h ****  *  \note This file should not be included directly. It is automatically included as needed by the 
  36:../../protocol/lufa/LUFA-120730/LUFA/Drivers/USB/Core/AVR8/../AVR8/Endpoint_AVR8.h ****  *        dispatch header located in LUFA/Drivers/USB/USB.h.
  37:../../protocol/lufa/LUFA-120730/LUFA/Drivers/USB/Core/AVR8/../AVR8/Endpoint_AVR8.h ****  */
  38:../../protocol/lufa/LUFA-120730/LUFA/Drivers/USB/Core/AVR8/../AVR8/Endpoint_AVR8.h **** 
  39:../../protocol/lufa/LUFA-120730/LUFA/Drivers/USB/Core/AVR8/../AVR8/Endpoint_AVR8.h **** /** \ingroup Group_EndpointRW
  40:../../protocol/lufa/LUFA-120730/LUFA/Drivers/USB/Core/AVR8/../AVR8/Endpoint_AVR8.h ****  *  \defgroup Group_EndpointRW_AVR8 Endpoint Data Reading and Writing (AVR8)
  41:../../protocol/lufa/LUFA-120730/LUFA/Drivers/USB/Core/AVR8/../AVR8/Endpoint_AVR8.h ****  *  \brief Endpoint data read/write definitions for the Atmel AVR8 architecture.
  42:../../protocol/lufa/LUFA-120730/LUFA/Drivers/USB/Core/AVR8/../AVR8/Endpoint_AVR8.h ****  *
  43:../../protocol/lufa/LUFA-120730/LUFA/Drivers/USB/Core/AVR8/../AVR8/Endpoint_AVR8.h ****  *  Functions, macros, variables, enums and types related to data reading and writing from and to e
  44:../../protocol/lufa/LUFA-120730/LUFA/Drivers/USB/Core/AVR8/../AVR8/Endpoint_AVR8.h ****  */
  45:../../protocol/lufa/LUFA-120730/LUFA/Drivers/USB/Core/AVR8/../AVR8/Endpoint_AVR8.h **** 
  46:../../protocol/lufa/LUFA-120730/LUFA/Drivers/USB/Core/AVR8/../AVR8/Endpoint_AVR8.h **** /** \ingroup Group_EndpointPrimitiveRW
  47:../../protocol/lufa/LUFA-120730/LUFA/Drivers/USB/Core/AVR8/../AVR8/Endpoint_AVR8.h ****  *  \defgroup Group_EndpointPrimitiveRW_AVR8 Read/Write of Primitive Data Types (AVR8)
  48:../../protocol/lufa/LUFA-120730/LUFA/Drivers/USB/Core/AVR8/../AVR8/Endpoint_AVR8.h ****  *  \brief Endpoint primitive read/write definitions for the Atmel AVR8 architecture.
  49:../../protocol/lufa/LUFA-120730/LUFA/Drivers/USB/Core/AVR8/../AVR8/Endpoint_AVR8.h ****  *
  50:../../protocol/lufa/LUFA-120730/LUFA/Drivers/USB/Core/AVR8/../AVR8/Endpoint_AVR8.h ****  *  Functions, macros, variables, enums and types related to data reading and writing of primitive 
  51:../../protocol/lufa/LUFA-120730/LUFA/Drivers/USB/Core/AVR8/../AVR8/Endpoint_AVR8.h ****  *  from and to endpoints.
  52:../../protocol/lufa/LUFA-120730/LUFA/Drivers/USB/Core/AVR8/../AVR8/Endpoint_AVR8.h ****  */
  53:../../protocol/lufa/LUFA-120730/LUFA/Drivers/USB/Core/AVR8/../AVR8/Endpoint_AVR8.h **** 
  54:../../protocol/lufa/LUFA-120730/LUFA/Drivers/USB/Core/AVR8/../AVR8/Endpoint_AVR8.h **** /** \ingroup Group_EndpointPacketManagement
  55:../../protocol/lufa/LUFA-120730/LUFA/Drivers/USB/Core/AVR8/../AVR8/Endpoint_AVR8.h ****  *  \defgroup Group_EndpointPacketManagement_AVR8 Endpoint Packet Management (AVR8)
  56:../../protocol/lufa/LUFA-120730/LUFA/Drivers/USB/Core/AVR8/../AVR8/Endpoint_AVR8.h ****  *  \brief Endpoint packet management definitions for the Atmel AVR8 architecture.
  57:../../protocol/lufa/LUFA-120730/LUFA/Drivers/USB/Core/AVR8/../AVR8/Endpoint_AVR8.h ****  *
  58:../../protocol/lufa/LUFA-120730/LUFA/Drivers/USB/Core/AVR8/../AVR8/Endpoint_AVR8.h ****  *  Functions, macros, variables, enums and types related to packet management of endpoints.
  59:../../protocol/lufa/LUFA-120730/LUFA/Drivers/USB/Core/AVR8/../AVR8/Endpoint_AVR8.h ****  */
  60:../../protocol/lufa/LUFA-120730/LUFA/Drivers/USB/Core/AVR8/../AVR8/Endpoint_AVR8.h **** 
  61:../../protocol/lufa/LUFA-120730/LUFA/Drivers/USB/Core/AVR8/../AVR8/Endpoint_AVR8.h **** /** \ingroup Group_EndpointManagement
  62:../../protocol/lufa/LUFA-120730/LUFA/Drivers/USB/Core/AVR8/../AVR8/Endpoint_AVR8.h ****  *  \defgroup Group_EndpointManagement_AVR8 Endpoint Management (AVR8)
  63:../../protocol/lufa/LUFA-120730/LUFA/Drivers/USB/Core/AVR8/../AVR8/Endpoint_AVR8.h ****  *  \brief Endpoint management definitions for the Atmel AVR8 architecture.
  64:../../protocol/lufa/LUFA-120730/LUFA/Drivers/USB/Core/AVR8/../AVR8/Endpoint_AVR8.h ****  *
  65:../../protocol/lufa/LUFA-120730/LUFA/Drivers/USB/Core/AVR8/../AVR8/Endpoint_AVR8.h ****  *  Functions, macros and enums related to endpoint management when in USB Device mode. This
  66:../../protocol/lufa/LUFA-120730/LUFA/Drivers/USB/Core/AVR8/../AVR8/Endpoint_AVR8.h ****  *  module contains the endpoint management macros, as well as endpoint interrupt and data
  67:../../protocol/lufa/LUFA-120730/LUFA/Drivers/USB/Core/AVR8/../AVR8/Endpoint_AVR8.h ****  *  send/receive functions for various data types.
  68:../../protocol/lufa/LUFA-120730/LUFA/Drivers/USB/Core/AVR8/../AVR8/Endpoint_AVR8.h ****  *
  69:../../protocol/lufa/LUFA-120730/LUFA/Drivers/USB/Core/AVR8/../AVR8/Endpoint_AVR8.h ****  *  @{
  70:../../protocol/lufa/LUFA-120730/LUFA/Drivers/USB/Core/AVR8/../AVR8/Endpoint_AVR8.h ****  */
  71:../../protocol/lufa/LUFA-120730/LUFA/Drivers/USB/Core/AVR8/../AVR8/Endpoint_AVR8.h **** 
  72:../../protocol/lufa/LUFA-120730/LUFA/Drivers/USB/Core/AVR8/../AVR8/Endpoint_AVR8.h **** #ifndef __ENDPOINT_AVR8_H__
  73:../../protocol/lufa/LUFA-120730/LUFA/Drivers/USB/Core/AVR8/../AVR8/Endpoint_AVR8.h **** #define __ENDPOINT_AVR8_H__
  74:../../protocol/lufa/LUFA-120730/LUFA/Drivers/USB/Core/AVR8/../AVR8/Endpoint_AVR8.h **** 
  75:../../protocol/lufa/LUFA-120730/LUFA/Drivers/USB/Core/AVR8/../AVR8/Endpoint_AVR8.h **** 	/* Includes: */
  76:../../protocol/lufa/LUFA-120730/LUFA/Drivers/USB/Core/AVR8/../AVR8/Endpoint_AVR8.h **** 		#include "../../../../Common/Common.h"
  77:../../protocol/lufa/LUFA-120730/LUFA/Drivers/USB/Core/AVR8/../AVR8/Endpoint_AVR8.h **** 		#include "../USBTask.h"
  78:../../protocol/lufa/LUFA-120730/LUFA/Drivers/USB/Core/AVR8/../AVR8/Endpoint_AVR8.h **** 		#include "../USBInterrupt.h"
  79:../../protocol/lufa/LUFA-120730/LUFA/Drivers/USB/Core/AVR8/../AVR8/Endpoint_AVR8.h **** 
  80:../../protocol/lufa/LUFA-120730/LUFA/Drivers/USB/Core/AVR8/../AVR8/Endpoint_AVR8.h **** 	/* Enable C linkage for C++ Compilers: */
  81:../../protocol/lufa/LUFA-120730/LUFA/Drivers/USB/Core/AVR8/../AVR8/Endpoint_AVR8.h **** 		#if defined(__cplusplus)
  82:../../protocol/lufa/LUFA-120730/LUFA/Drivers/USB/Core/AVR8/../AVR8/Endpoint_AVR8.h **** 			extern "C" {
  83:../../protocol/lufa/LUFA-120730/LUFA/Drivers/USB/Core/AVR8/../AVR8/Endpoint_AVR8.h **** 		#endif
  84:../../protocol/lufa/LUFA-120730/LUFA/Drivers/USB/Core/AVR8/../AVR8/Endpoint_AVR8.h **** 
  85:../../protocol/lufa/LUFA-120730/LUFA/Drivers/USB/Core/AVR8/../AVR8/Endpoint_AVR8.h **** 	/* Preprocessor Checks: */
  86:../../protocol/lufa/LUFA-120730/LUFA/Drivers/USB/Core/AVR8/../AVR8/Endpoint_AVR8.h **** 		#if !defined(__INCLUDE_FROM_USB_DRIVER)
  87:../../protocol/lufa/LUFA-120730/LUFA/Drivers/USB/Core/AVR8/../AVR8/Endpoint_AVR8.h **** 			#error Do not include this file directly. Include LUFA/Drivers/USB/USB.h instead.
  88:../../protocol/lufa/LUFA-120730/LUFA/Drivers/USB/Core/AVR8/../AVR8/Endpoint_AVR8.h **** 		#endif
  89:../../protocol/lufa/LUFA-120730/LUFA/Drivers/USB/Core/AVR8/../AVR8/Endpoint_AVR8.h **** 
  90:../../protocol/lufa/LUFA-120730/LUFA/Drivers/USB/Core/AVR8/../AVR8/Endpoint_AVR8.h **** 	/* Private Interface - For use in library only: */
  91:../../protocol/lufa/LUFA-120730/LUFA/Drivers/USB/Core/AVR8/../AVR8/Endpoint_AVR8.h **** 	#if !defined(__DOXYGEN__)
  92:../../protocol/lufa/LUFA-120730/LUFA/Drivers/USB/Core/AVR8/../AVR8/Endpoint_AVR8.h **** 		/* Inline Functions: */
  93:../../protocol/lufa/LUFA-120730/LUFA/Drivers/USB/Core/AVR8/../AVR8/Endpoint_AVR8.h **** 			static inline uint8_t Endpoint_BytesToEPSizeMask(const uint16_t Bytes) ATTR_WARN_UNUSED_RESULT A
  94:../../protocol/lufa/LUFA-120730/LUFA/Drivers/USB/Core/AVR8/../AVR8/Endpoint_AVR8.h **** 			                                                                       ATTR_ALWAYS_INLINE;
  95:../../protocol/lufa/LUFA-120730/LUFA/Drivers/USB/Core/AVR8/../AVR8/Endpoint_AVR8.h **** 			static inline uint8_t Endpoint_BytesToEPSizeMask(const uint16_t Bytes)
  96:../../protocol/lufa/LUFA-120730/LUFA/Drivers/USB/Core/AVR8/../AVR8/Endpoint_AVR8.h **** 			{
  97:../../protocol/lufa/LUFA-120730/LUFA/Drivers/USB/Core/AVR8/../AVR8/Endpoint_AVR8.h **** 				uint8_t  MaskVal    = 0;
  98:../../protocol/lufa/LUFA-120730/LUFA/Drivers/USB/Core/AVR8/../AVR8/Endpoint_AVR8.h **** 				uint16_t CheckBytes = 8;
  99:../../protocol/lufa/LUFA-120730/LUFA/Drivers/USB/Core/AVR8/../AVR8/Endpoint_AVR8.h **** 
 100:../../protocol/lufa/LUFA-120730/LUFA/Drivers/USB/Core/AVR8/../AVR8/Endpoint_AVR8.h **** 				while (CheckBytes < Bytes)
 101:../../protocol/lufa/LUFA-120730/LUFA/Drivers/USB/Core/AVR8/../AVR8/Endpoint_AVR8.h **** 				{
 102:../../protocol/lufa/LUFA-120730/LUFA/Drivers/USB/Core/AVR8/../AVR8/Endpoint_AVR8.h **** 					MaskVal++;
 103:../../protocol/lufa/LUFA-120730/LUFA/Drivers/USB/Core/AVR8/../AVR8/Endpoint_AVR8.h **** 					CheckBytes <<= 1;
 104:../../protocol/lufa/LUFA-120730/LUFA/Drivers/USB/Core/AVR8/../AVR8/Endpoint_AVR8.h **** 				}
 105:../../protocol/lufa/LUFA-120730/LUFA/Drivers/USB/Core/AVR8/../AVR8/Endpoint_AVR8.h **** 
 106:../../protocol/lufa/LUFA-120730/LUFA/Drivers/USB/Core/AVR8/../AVR8/Endpoint_AVR8.h **** 				return (MaskVal << EPSIZE0);
 107:../../protocol/lufa/LUFA-120730/LUFA/Drivers/USB/Core/AVR8/../AVR8/Endpoint_AVR8.h **** 			}
 108:../../protocol/lufa/LUFA-120730/LUFA/Drivers/USB/Core/AVR8/../AVR8/Endpoint_AVR8.h **** 
 109:../../protocol/lufa/LUFA-120730/LUFA/Drivers/USB/Core/AVR8/../AVR8/Endpoint_AVR8.h **** 		/* Function Prototypes: */
 110:../../protocol/lufa/LUFA-120730/LUFA/Drivers/USB/Core/AVR8/../AVR8/Endpoint_AVR8.h **** 			void Endpoint_ClearEndpoints(void);
 111:../../protocol/lufa/LUFA-120730/LUFA/Drivers/USB/Core/AVR8/../AVR8/Endpoint_AVR8.h **** 			bool Endpoint_ConfigureEndpoint_Prv(const uint8_t Number,
 112:../../protocol/lufa/LUFA-120730/LUFA/Drivers/USB/Core/AVR8/../AVR8/Endpoint_AVR8.h **** 			                                    const uint8_t UECFG0XData,
 113:../../protocol/lufa/LUFA-120730/LUFA/Drivers/USB/Core/AVR8/../AVR8/Endpoint_AVR8.h **** 			                                    const uint8_t UECFG1XData);
 114:../../protocol/lufa/LUFA-120730/LUFA/Drivers/USB/Core/AVR8/../AVR8/Endpoint_AVR8.h **** 
 115:../../protocol/lufa/LUFA-120730/LUFA/Drivers/USB/Core/AVR8/../AVR8/Endpoint_AVR8.h **** 	#endif
 116:../../protocol/lufa/LUFA-120730/LUFA/Drivers/USB/Core/AVR8/../AVR8/Endpoint_AVR8.h **** 
 117:../../protocol/lufa/LUFA-120730/LUFA/Drivers/USB/Core/AVR8/../AVR8/Endpoint_AVR8.h **** 	/* Public Interface - May be used in end-application: */
 118:../../protocol/lufa/LUFA-120730/LUFA/Drivers/USB/Core/AVR8/../AVR8/Endpoint_AVR8.h **** 		/* Macros: */
 119:../../protocol/lufa/LUFA-120730/LUFA/Drivers/USB/Core/AVR8/../AVR8/Endpoint_AVR8.h **** 			#if (!defined(FIXED_CONTROL_ENDPOINT_SIZE) || defined(__DOXYGEN__))
 120:../../protocol/lufa/LUFA-120730/LUFA/Drivers/USB/Core/AVR8/../AVR8/Endpoint_AVR8.h **** 				/** Default size of the default control endpoint's bank, until altered by the control endpoint 
 121:../../protocol/lufa/LUFA-120730/LUFA/Drivers/USB/Core/AVR8/../AVR8/Endpoint_AVR8.h **** 				 *  value in the device descriptor. Not available if the \c FIXED_CONTROL_ENDPOINT_SIZE token i
 122:../../protocol/lufa/LUFA-120730/LUFA/Drivers/USB/Core/AVR8/../AVR8/Endpoint_AVR8.h **** 				 */
 123:../../protocol/lufa/LUFA-120730/LUFA/Drivers/USB/Core/AVR8/../AVR8/Endpoint_AVR8.h **** 				#define ENDPOINT_CONTROLEP_DEFAULT_SIZE     8
 124:../../protocol/lufa/LUFA-120730/LUFA/Drivers/USB/Core/AVR8/../AVR8/Endpoint_AVR8.h **** 			#endif
 125:../../protocol/lufa/LUFA-120730/LUFA/Drivers/USB/Core/AVR8/../AVR8/Endpoint_AVR8.h **** 
 126:../../protocol/lufa/LUFA-120730/LUFA/Drivers/USB/Core/AVR8/../AVR8/Endpoint_AVR8.h **** 			#if !defined(CONTROL_ONLY_DEVICE) || defined(__DOXYGEN__)
 127:../../protocol/lufa/LUFA-120730/LUFA/Drivers/USB/Core/AVR8/../AVR8/Endpoint_AVR8.h **** 				#if defined(USB_SERIES_4_AVR) || defined(USB_SERIES_6_AVR) || defined(USB_SERIES_7_AVR)
 128:../../protocol/lufa/LUFA-120730/LUFA/Drivers/USB/Core/AVR8/../AVR8/Endpoint_AVR8.h **** 					#define ENDPOINT_TOTAL_ENDPOINTS        7
 129:../../protocol/lufa/LUFA-120730/LUFA/Drivers/USB/Core/AVR8/../AVR8/Endpoint_AVR8.h **** 				#else
 130:../../protocol/lufa/LUFA-120730/LUFA/Drivers/USB/Core/AVR8/../AVR8/Endpoint_AVR8.h **** 					/** Total number of endpoints (including the default control endpoint at address 0) which may
 131:../../protocol/lufa/LUFA-120730/LUFA/Drivers/USB/Core/AVR8/../AVR8/Endpoint_AVR8.h **** 					 *  be used in the device. Different USB AVR models support different amounts of endpoints,
 132:../../protocol/lufa/LUFA-120730/LUFA/Drivers/USB/Core/AVR8/../AVR8/Endpoint_AVR8.h **** 					 *  this value reflects the maximum number of endpoints for the currently selected AVR model.
 133:../../protocol/lufa/LUFA-120730/LUFA/Drivers/USB/Core/AVR8/../AVR8/Endpoint_AVR8.h **** 					 */
 134:../../protocol/lufa/LUFA-120730/LUFA/Drivers/USB/Core/AVR8/../AVR8/Endpoint_AVR8.h **** 					#define ENDPOINT_TOTAL_ENDPOINTS        5
 135:../../protocol/lufa/LUFA-120730/LUFA/Drivers/USB/Core/AVR8/../AVR8/Endpoint_AVR8.h **** 				#endif
 136:../../protocol/lufa/LUFA-120730/LUFA/Drivers/USB/Core/AVR8/../AVR8/Endpoint_AVR8.h **** 			#else
 137:../../protocol/lufa/LUFA-120730/LUFA/Drivers/USB/Core/AVR8/../AVR8/Endpoint_AVR8.h **** 				#define ENDPOINT_TOTAL_ENDPOINTS            1
 138:../../protocol/lufa/LUFA-120730/LUFA/Drivers/USB/Core/AVR8/../AVR8/Endpoint_AVR8.h **** 			#endif
 139:../../protocol/lufa/LUFA-120730/LUFA/Drivers/USB/Core/AVR8/../AVR8/Endpoint_AVR8.h **** 
 140:../../protocol/lufa/LUFA-120730/LUFA/Drivers/USB/Core/AVR8/../AVR8/Endpoint_AVR8.h **** 		/* Enums: */
 141:../../protocol/lufa/LUFA-120730/LUFA/Drivers/USB/Core/AVR8/../AVR8/Endpoint_AVR8.h **** 			/** Enum for the possible error return codes of the \ref Endpoint_WaitUntilReady() function.
 142:../../protocol/lufa/LUFA-120730/LUFA/Drivers/USB/Core/AVR8/../AVR8/Endpoint_AVR8.h **** 			 *
 143:../../protocol/lufa/LUFA-120730/LUFA/Drivers/USB/Core/AVR8/../AVR8/Endpoint_AVR8.h **** 			 *  \ingroup Group_EndpointRW_AVR8
 144:../../protocol/lufa/LUFA-120730/LUFA/Drivers/USB/Core/AVR8/../AVR8/Endpoint_AVR8.h **** 			 */
 145:../../protocol/lufa/LUFA-120730/LUFA/Drivers/USB/Core/AVR8/../AVR8/Endpoint_AVR8.h **** 			enum Endpoint_WaitUntilReady_ErrorCodes_t
 146:../../protocol/lufa/LUFA-120730/LUFA/Drivers/USB/Core/AVR8/../AVR8/Endpoint_AVR8.h **** 			{
 147:../../protocol/lufa/LUFA-120730/LUFA/Drivers/USB/Core/AVR8/../AVR8/Endpoint_AVR8.h **** 				ENDPOINT_READYWAIT_NoError                 = 0, /**< Endpoint is ready for next packet, no erro
 148:../../protocol/lufa/LUFA-120730/LUFA/Drivers/USB/Core/AVR8/../AVR8/Endpoint_AVR8.h **** 				ENDPOINT_READYWAIT_EndpointStalled         = 1, /**< The endpoint was stalled during the stream
 149:../../protocol/lufa/LUFA-120730/LUFA/Drivers/USB/Core/AVR8/../AVR8/Endpoint_AVR8.h **** 				                                                 *   transfer by the host or device.
 150:../../protocol/lufa/LUFA-120730/LUFA/Drivers/USB/Core/AVR8/../AVR8/Endpoint_AVR8.h **** 				                                                 */
 151:../../protocol/lufa/LUFA-120730/LUFA/Drivers/USB/Core/AVR8/../AVR8/Endpoint_AVR8.h **** 				ENDPOINT_READYWAIT_DeviceDisconnected      = 2,	/**< Device was disconnected from the host whil
 152:../../protocol/lufa/LUFA-120730/LUFA/Drivers/USB/Core/AVR8/../AVR8/Endpoint_AVR8.h **** 				                                                 *   waiting for the endpoint to become ready.
 153:../../protocol/lufa/LUFA-120730/LUFA/Drivers/USB/Core/AVR8/../AVR8/Endpoint_AVR8.h **** 				                                                 */
 154:../../protocol/lufa/LUFA-120730/LUFA/Drivers/USB/Core/AVR8/../AVR8/Endpoint_AVR8.h **** 				ENDPOINT_READYWAIT_BusSuspended            = 3, /**< The USB bus has been suspended by the host
 155:../../protocol/lufa/LUFA-120730/LUFA/Drivers/USB/Core/AVR8/../AVR8/Endpoint_AVR8.h **** 				                                                 *   no USB endpoint traffic can occur until th
 156:../../protocol/lufa/LUFA-120730/LUFA/Drivers/USB/Core/AVR8/../AVR8/Endpoint_AVR8.h **** 				                                                 *   has resumed.
 157:../../protocol/lufa/LUFA-120730/LUFA/Drivers/USB/Core/AVR8/../AVR8/Endpoint_AVR8.h **** 				                                                 */
 158:../../protocol/lufa/LUFA-120730/LUFA/Drivers/USB/Core/AVR8/../AVR8/Endpoint_AVR8.h **** 				ENDPOINT_READYWAIT_Timeout                 = 4, /**< The host failed to accept or send the next
 159:../../protocol/lufa/LUFA-120730/LUFA/Drivers/USB/Core/AVR8/../AVR8/Endpoint_AVR8.h **** 				                                                 *   within the software timeout period set by 
 160:../../protocol/lufa/LUFA-120730/LUFA/Drivers/USB/Core/AVR8/../AVR8/Endpoint_AVR8.h **** 				                                                 *   \ref USB_STREAM_TIMEOUT_MS macro.
 161:../../protocol/lufa/LUFA-120730/LUFA/Drivers/USB/Core/AVR8/../AVR8/Endpoint_AVR8.h **** 				                                                 */
 162:../../protocol/lufa/LUFA-120730/LUFA/Drivers/USB/Core/AVR8/../AVR8/Endpoint_AVR8.h **** 			};
 163:../../protocol/lufa/LUFA-120730/LUFA/Drivers/USB/Core/AVR8/../AVR8/Endpoint_AVR8.h **** 
 164:../../protocol/lufa/LUFA-120730/LUFA/Drivers/USB/Core/AVR8/../AVR8/Endpoint_AVR8.h **** 		/* Inline Functions: */
 165:../../protocol/lufa/LUFA-120730/LUFA/Drivers/USB/Core/AVR8/../AVR8/Endpoint_AVR8.h **** 			/** Configures the specified endpoint address with the given endpoint type, bank size and number
 166:../../protocol/lufa/LUFA-120730/LUFA/Drivers/USB/Core/AVR8/../AVR8/Endpoint_AVR8.h **** 			 *  banks. Once configured, the endpoint may be read from or written to, depending on its direct
 167:../../protocol/lufa/LUFA-120730/LUFA/Drivers/USB/Core/AVR8/../AVR8/Endpoint_AVR8.h **** 			 *
 168:../../protocol/lufa/LUFA-120730/LUFA/Drivers/USB/Core/AVR8/../AVR8/Endpoint_AVR8.h **** 			 *  \param[in] Address    Endpoint address to configure.
 169:../../protocol/lufa/LUFA-120730/LUFA/Drivers/USB/Core/AVR8/../AVR8/Endpoint_AVR8.h **** 			 *
 170:../../protocol/lufa/LUFA-120730/LUFA/Drivers/USB/Core/AVR8/../AVR8/Endpoint_AVR8.h **** 			 *  \param[in] Type       Type of endpoint to configure, a \c EP_TYPE_* mask. Not all endpoint t
 171:../../protocol/lufa/LUFA-120730/LUFA/Drivers/USB/Core/AVR8/../AVR8/Endpoint_AVR8.h **** 			 *                        are available on Low Speed USB devices - refer to the USB 2.0 specific
 172:../../protocol/lufa/LUFA-120730/LUFA/Drivers/USB/Core/AVR8/../AVR8/Endpoint_AVR8.h **** 			 *
 173:../../protocol/lufa/LUFA-120730/LUFA/Drivers/USB/Core/AVR8/../AVR8/Endpoint_AVR8.h **** 			 *  \param[in] Size       Size of the endpoint's bank, where packets are stored before they are 
 174:../../protocol/lufa/LUFA-120730/LUFA/Drivers/USB/Core/AVR8/../AVR8/Endpoint_AVR8.h **** 			 *                        to the USB host, or after they have been received from the USB host (d
 175:../../protocol/lufa/LUFA-120730/LUFA/Drivers/USB/Core/AVR8/../AVR8/Endpoint_AVR8.h **** 			 *                        the endpoint's data direction). The bank size must indicate the maximu
 176:../../protocol/lufa/LUFA-120730/LUFA/Drivers/USB/Core/AVR8/../AVR8/Endpoint_AVR8.h **** 			 *                        that the endpoint can handle.
 177:../../protocol/lufa/LUFA-120730/LUFA/Drivers/USB/Core/AVR8/../AVR8/Endpoint_AVR8.h **** 			 *
 178:../../protocol/lufa/LUFA-120730/LUFA/Drivers/USB/Core/AVR8/../AVR8/Endpoint_AVR8.h **** 			 *  \param[in] Banks      Number of banks to use for the endpoint being configured.
 179:../../protocol/lufa/LUFA-120730/LUFA/Drivers/USB/Core/AVR8/../AVR8/Endpoint_AVR8.h **** 			 *
 180:../../protocol/lufa/LUFA-120730/LUFA/Drivers/USB/Core/AVR8/../AVR8/Endpoint_AVR8.h **** 			 *  \attention When the \c ORDERED_EP_CONFIG compile time option is used, Endpoints <b>must</b> 
 181:../../protocol/lufa/LUFA-120730/LUFA/Drivers/USB/Core/AVR8/../AVR8/Endpoint_AVR8.h **** 			 *             ascending order, or bank corruption will occur.
 182:../../protocol/lufa/LUFA-120730/LUFA/Drivers/USB/Core/AVR8/../AVR8/Endpoint_AVR8.h **** 			 *
 183:../../protocol/lufa/LUFA-120730/LUFA/Drivers/USB/Core/AVR8/../AVR8/Endpoint_AVR8.h **** 			 *  \note Different endpoints may have different maximum packet sizes based on the endpoint's in
 184:../../protocol/lufa/LUFA-120730/LUFA/Drivers/USB/Core/AVR8/../AVR8/Endpoint_AVR8.h **** 			 *        refer to the chosen microcontroller model's datasheet to determine the maximum bank si
 185:../../protocol/lufa/LUFA-120730/LUFA/Drivers/USB/Core/AVR8/../AVR8/Endpoint_AVR8.h **** 			 *        \n\n
 186:../../protocol/lufa/LUFA-120730/LUFA/Drivers/USB/Core/AVR8/../AVR8/Endpoint_AVR8.h **** 			 *
 187:../../protocol/lufa/LUFA-120730/LUFA/Drivers/USB/Core/AVR8/../AVR8/Endpoint_AVR8.h **** 			 *  \note The default control endpoint should not be manually configured by the user application
 188:../../protocol/lufa/LUFA-120730/LUFA/Drivers/USB/Core/AVR8/../AVR8/Endpoint_AVR8.h **** 			 *        it is automatically configured by the library internally.
 189:../../protocol/lufa/LUFA-120730/LUFA/Drivers/USB/Core/AVR8/../AVR8/Endpoint_AVR8.h **** 			 *        \n\n
 190:../../protocol/lufa/LUFA-120730/LUFA/Drivers/USB/Core/AVR8/../AVR8/Endpoint_AVR8.h **** 			 *
 191:../../protocol/lufa/LUFA-120730/LUFA/Drivers/USB/Core/AVR8/../AVR8/Endpoint_AVR8.h **** 			 *  \note This routine will automatically select the specified endpoint upon success. Upon failu
 192:../../protocol/lufa/LUFA-120730/LUFA/Drivers/USB/Core/AVR8/../AVR8/Endpoint_AVR8.h **** 			 *        which failed to reconfigure correctly will be selected.
 193:../../protocol/lufa/LUFA-120730/LUFA/Drivers/USB/Core/AVR8/../AVR8/Endpoint_AVR8.h **** 			 *
 194:../../protocol/lufa/LUFA-120730/LUFA/Drivers/USB/Core/AVR8/../AVR8/Endpoint_AVR8.h **** 			 *  \return Boolean \c true if the configuration succeeded, \c false otherwise.
 195:../../protocol/lufa/LUFA-120730/LUFA/Drivers/USB/Core/AVR8/../AVR8/Endpoint_AVR8.h **** 			 */
 196:../../protocol/lufa/LUFA-120730/LUFA/Drivers/USB/Core/AVR8/../AVR8/Endpoint_AVR8.h **** 			static inline bool Endpoint_ConfigureEndpoint(const uint8_t Address,
 197:../../protocol/lufa/LUFA-120730/LUFA/Drivers/USB/Core/AVR8/../AVR8/Endpoint_AVR8.h **** 			                                              const uint8_t Type,
 198:../../protocol/lufa/LUFA-120730/LUFA/Drivers/USB/Core/AVR8/../AVR8/Endpoint_AVR8.h **** 			                                              const uint16_t Size,
 199:../../protocol/lufa/LUFA-120730/LUFA/Drivers/USB/Core/AVR8/../AVR8/Endpoint_AVR8.h **** 			                                              const uint8_t Banks) ATTR_ALWAYS_INLINE;
 200:../../protocol/lufa/LUFA-120730/LUFA/Drivers/USB/Core/AVR8/../AVR8/Endpoint_AVR8.h **** 			static inline bool Endpoint_ConfigureEndpoint(const uint8_t Address,
 201:../../protocol/lufa/LUFA-120730/LUFA/Drivers/USB/Core/AVR8/../AVR8/Endpoint_AVR8.h **** 			                                              const uint8_t Type,
 202:../../protocol/lufa/LUFA-120730/LUFA/Drivers/USB/Core/AVR8/../AVR8/Endpoint_AVR8.h **** 			                                              const uint16_t Size,
 203:../../protocol/lufa/LUFA-120730/LUFA/Drivers/USB/Core/AVR8/../AVR8/Endpoint_AVR8.h **** 			                                              const uint8_t Banks)
 204:../../protocol/lufa/LUFA-120730/LUFA/Drivers/USB/Core/AVR8/../AVR8/Endpoint_AVR8.h **** 			{
 205:../../protocol/lufa/LUFA-120730/LUFA/Drivers/USB/Core/AVR8/../AVR8/Endpoint_AVR8.h **** 				uint8_t Number = (Address & ENDPOINT_EPNUM_MASK);
 206:../../protocol/lufa/LUFA-120730/LUFA/Drivers/USB/Core/AVR8/../AVR8/Endpoint_AVR8.h **** 			
 207:../../protocol/lufa/LUFA-120730/LUFA/Drivers/USB/Core/AVR8/../AVR8/Endpoint_AVR8.h **** 				if (Number >= ENDPOINT_TOTAL_ENDPOINTS)
 208:../../protocol/lufa/LUFA-120730/LUFA/Drivers/USB/Core/AVR8/../AVR8/Endpoint_AVR8.h **** 				  return false;
 209:../../protocol/lufa/LUFA-120730/LUFA/Drivers/USB/Core/AVR8/../AVR8/Endpoint_AVR8.h **** 			
 210:../../protocol/lufa/LUFA-120730/LUFA/Drivers/USB/Core/AVR8/../AVR8/Endpoint_AVR8.h **** 				return Endpoint_ConfigureEndpoint_Prv(Number,
 211:../../protocol/lufa/LUFA-120730/LUFA/Drivers/USB/Core/AVR8/../AVR8/Endpoint_AVR8.h **** 				                                      ((Type << EPTYPE0) | ((Address & ENDPOINT_DIR_IN) ? (1 <<
 212:../../protocol/lufa/LUFA-120730/LUFA/Drivers/USB/Core/AVR8/../AVR8/Endpoint_AVR8.h **** 				                                      ((1 << ALLOC) | ((Banks > 1) ? (1 << EPBK0) : 0) | Endpoi
 213:../../protocol/lufa/LUFA-120730/LUFA/Drivers/USB/Core/AVR8/../AVR8/Endpoint_AVR8.h **** 			}
 214:../../protocol/lufa/LUFA-120730/LUFA/Drivers/USB/Core/AVR8/../AVR8/Endpoint_AVR8.h **** 
 215:../../protocol/lufa/LUFA-120730/LUFA/Drivers/USB/Core/AVR8/../AVR8/Endpoint_AVR8.h **** 			/** Indicates the number of bytes currently stored in the current endpoint's selected bank.
 216:../../protocol/lufa/LUFA-120730/LUFA/Drivers/USB/Core/AVR8/../AVR8/Endpoint_AVR8.h **** 			 *
 217:../../protocol/lufa/LUFA-120730/LUFA/Drivers/USB/Core/AVR8/../AVR8/Endpoint_AVR8.h **** 			 *  \ingroup Group_EndpointRW_AVR8
 218:../../protocol/lufa/LUFA-120730/LUFA/Drivers/USB/Core/AVR8/../AVR8/Endpoint_AVR8.h **** 			 *
 219:../../protocol/lufa/LUFA-120730/LUFA/Drivers/USB/Core/AVR8/../AVR8/Endpoint_AVR8.h **** 			 *  \return Total number of bytes in the currently selected Endpoint's FIFO buffer.
 220:../../protocol/lufa/LUFA-120730/LUFA/Drivers/USB/Core/AVR8/../AVR8/Endpoint_AVR8.h **** 			 */
 221:../../protocol/lufa/LUFA-120730/LUFA/Drivers/USB/Core/AVR8/../AVR8/Endpoint_AVR8.h **** 			static inline uint16_t Endpoint_BytesInEndpoint(void) ATTR_WARN_UNUSED_RESULT ATTR_ALWAYS_INLINE
 222:../../protocol/lufa/LUFA-120730/LUFA/Drivers/USB/Core/AVR8/../AVR8/Endpoint_AVR8.h **** 			static inline uint16_t Endpoint_BytesInEndpoint(void)
 223:../../protocol/lufa/LUFA-120730/LUFA/Drivers/USB/Core/AVR8/../AVR8/Endpoint_AVR8.h **** 			{
 224:../../protocol/lufa/LUFA-120730/LUFA/Drivers/USB/Core/AVR8/../AVR8/Endpoint_AVR8.h **** 				#if (defined(USB_SERIES_6_AVR) || defined(USB_SERIES_7_AVR)) && !defined(__AVR_ATmega32U6__)
 225:../../protocol/lufa/LUFA-120730/LUFA/Drivers/USB/Core/AVR8/../AVR8/Endpoint_AVR8.h **** 					return UEBCX;
 226:../../protocol/lufa/LUFA-120730/LUFA/Drivers/USB/Core/AVR8/../AVR8/Endpoint_AVR8.h **** 				#elif defined(USB_SERIES_4_AVR) || defined(__AVR_ATmega32U6__)
 227:../../protocol/lufa/LUFA-120730/LUFA/Drivers/USB/Core/AVR8/../AVR8/Endpoint_AVR8.h **** 					return (((uint16_t)UEBCHX << 8) | UEBCLX);
 228:../../protocol/lufa/LUFA-120730/LUFA/Drivers/USB/Core/AVR8/../AVR8/Endpoint_AVR8.h **** 				#elif defined(USB_SERIES_2_AVR)
 229:../../protocol/lufa/LUFA-120730/LUFA/Drivers/USB/Core/AVR8/../AVR8/Endpoint_AVR8.h **** 					return UEBCLX;
 230:../../protocol/lufa/LUFA-120730/LUFA/Drivers/USB/Core/AVR8/../AVR8/Endpoint_AVR8.h **** 				#endif
 231:../../protocol/lufa/LUFA-120730/LUFA/Drivers/USB/Core/AVR8/../AVR8/Endpoint_AVR8.h **** 			}
 232:../../protocol/lufa/LUFA-120730/LUFA/Drivers/USB/Core/AVR8/../AVR8/Endpoint_AVR8.h **** 
 233:../../protocol/lufa/LUFA-120730/LUFA/Drivers/USB/Core/AVR8/../AVR8/Endpoint_AVR8.h **** 			/** Determines the currently selected endpoint's direction.
 234:../../protocol/lufa/LUFA-120730/LUFA/Drivers/USB/Core/AVR8/../AVR8/Endpoint_AVR8.h **** 			 *
 235:../../protocol/lufa/LUFA-120730/LUFA/Drivers/USB/Core/AVR8/../AVR8/Endpoint_AVR8.h **** 			 *  \return The currently selected endpoint's direction, as a \c ENDPOINT_DIR_* mask.
 236:../../protocol/lufa/LUFA-120730/LUFA/Drivers/USB/Core/AVR8/../AVR8/Endpoint_AVR8.h **** 			 */
 237:../../protocol/lufa/LUFA-120730/LUFA/Drivers/USB/Core/AVR8/../AVR8/Endpoint_AVR8.h **** 			static inline uint8_t Endpoint_GetEndpointDirection(void) ATTR_WARN_UNUSED_RESULT ATTR_ALWAYS_IN
 238:../../protocol/lufa/LUFA-120730/LUFA/Drivers/USB/Core/AVR8/../AVR8/Endpoint_AVR8.h **** 			static inline uint8_t Endpoint_GetEndpointDirection(void)
 239:../../protocol/lufa/LUFA-120730/LUFA/Drivers/USB/Core/AVR8/../AVR8/Endpoint_AVR8.h **** 			{
 240:../../protocol/lufa/LUFA-120730/LUFA/Drivers/USB/Core/AVR8/../AVR8/Endpoint_AVR8.h **** 				return (UECFG0X & (1 << EPDIR)) ? ENDPOINT_DIR_IN : ENDPOINT_DIR_OUT;
 241:../../protocol/lufa/LUFA-120730/LUFA/Drivers/USB/Core/AVR8/../AVR8/Endpoint_AVR8.h **** 			}
 242:../../protocol/lufa/LUFA-120730/LUFA/Drivers/USB/Core/AVR8/../AVR8/Endpoint_AVR8.h **** 
 243:../../protocol/lufa/LUFA-120730/LUFA/Drivers/USB/Core/AVR8/../AVR8/Endpoint_AVR8.h **** 			/** Get the endpoint address of the currently selected endpoint. This is typically used to save
 244:../../protocol/lufa/LUFA-120730/LUFA/Drivers/USB/Core/AVR8/../AVR8/Endpoint_AVR8.h **** 			 *  the currently selected endpoint so that it can be restored after another endpoint has been
 245:../../protocol/lufa/LUFA-120730/LUFA/Drivers/USB/Core/AVR8/../AVR8/Endpoint_AVR8.h **** 			 *  manipulated.
 246:../../protocol/lufa/LUFA-120730/LUFA/Drivers/USB/Core/AVR8/../AVR8/Endpoint_AVR8.h **** 			 *
 247:../../protocol/lufa/LUFA-120730/LUFA/Drivers/USB/Core/AVR8/../AVR8/Endpoint_AVR8.h **** 			 *  \return Index of the currently selected endpoint.
 248:../../protocol/lufa/LUFA-120730/LUFA/Drivers/USB/Core/AVR8/../AVR8/Endpoint_AVR8.h **** 			 */
 249:../../protocol/lufa/LUFA-120730/LUFA/Drivers/USB/Core/AVR8/../AVR8/Endpoint_AVR8.h **** 			static inline uint8_t Endpoint_GetCurrentEndpoint(void) ATTR_WARN_UNUSED_RESULT ATTR_ALWAYS_INLI
 250:../../protocol/lufa/LUFA-120730/LUFA/Drivers/USB/Core/AVR8/../AVR8/Endpoint_AVR8.h **** 			static inline uint8_t Endpoint_GetCurrentEndpoint(void)
 251:../../protocol/lufa/LUFA-120730/LUFA/Drivers/USB/Core/AVR8/../AVR8/Endpoint_AVR8.h **** 			{
 252:../../protocol/lufa/LUFA-120730/LUFA/Drivers/USB/Core/AVR8/../AVR8/Endpoint_AVR8.h **** 				#if !defined(CONTROL_ONLY_DEVICE)
 253:../../protocol/lufa/LUFA-120730/LUFA/Drivers/USB/Core/AVR8/../AVR8/Endpoint_AVR8.h **** 					return ((UENUM & ENDPOINT_EPNUM_MASK) | Endpoint_GetEndpointDirection());
 254:../../protocol/lufa/LUFA-120730/LUFA/Drivers/USB/Core/AVR8/../AVR8/Endpoint_AVR8.h **** 				#else
 255:../../protocol/lufa/LUFA-120730/LUFA/Drivers/USB/Core/AVR8/../AVR8/Endpoint_AVR8.h **** 					return ENDPOINT_CONTROLEP;
 256:../../protocol/lufa/LUFA-120730/LUFA/Drivers/USB/Core/AVR8/../AVR8/Endpoint_AVR8.h **** 				#endif
 257:../../protocol/lufa/LUFA-120730/LUFA/Drivers/USB/Core/AVR8/../AVR8/Endpoint_AVR8.h **** 			}
 258:../../protocol/lufa/LUFA-120730/LUFA/Drivers/USB/Core/AVR8/../AVR8/Endpoint_AVR8.h **** 
 259:../../protocol/lufa/LUFA-120730/LUFA/Drivers/USB/Core/AVR8/../AVR8/Endpoint_AVR8.h **** 			/** Selects the given endpoint address.
 260:../../protocol/lufa/LUFA-120730/LUFA/Drivers/USB/Core/AVR8/../AVR8/Endpoint_AVR8.h **** 			 *
 261:../../protocol/lufa/LUFA-120730/LUFA/Drivers/USB/Core/AVR8/../AVR8/Endpoint_AVR8.h **** 			 *  Any endpoint operations which do not require the endpoint address to be indicated will opera
 262:../../protocol/lufa/LUFA-120730/LUFA/Drivers/USB/Core/AVR8/../AVR8/Endpoint_AVR8.h **** 			 *  the currently selected endpoint.
 263:../../protocol/lufa/LUFA-120730/LUFA/Drivers/USB/Core/AVR8/../AVR8/Endpoint_AVR8.h **** 			 *
 264:../../protocol/lufa/LUFA-120730/LUFA/Drivers/USB/Core/AVR8/../AVR8/Endpoint_AVR8.h **** 			 *  \param[in] Address Endpoint address to select.
 265:../../protocol/lufa/LUFA-120730/LUFA/Drivers/USB/Core/AVR8/../AVR8/Endpoint_AVR8.h **** 			 */
 266:../../protocol/lufa/LUFA-120730/LUFA/Drivers/USB/Core/AVR8/../AVR8/Endpoint_AVR8.h **** 			static inline void Endpoint_SelectEndpoint(const uint8_t Address) ATTR_ALWAYS_INLINE;
 267:../../protocol/lufa/LUFA-120730/LUFA/Drivers/USB/Core/AVR8/../AVR8/Endpoint_AVR8.h **** 			static inline void Endpoint_SelectEndpoint(const uint8_t Address)
 268:../../protocol/lufa/LUFA-120730/LUFA/Drivers/USB/Core/AVR8/../AVR8/Endpoint_AVR8.h **** 			{
 269:../../protocol/lufa/LUFA-120730/LUFA/Drivers/USB/Core/AVR8/../AVR8/Endpoint_AVR8.h **** 				#if !defined(CONTROL_ONLY_DEVICE)
 270:../../protocol/lufa/LUFA-120730/LUFA/Drivers/USB/Core/AVR8/../AVR8/Endpoint_AVR8.h **** 					UENUM = (Address & ENDPOINT_EPNUM_MASK);
  68               		.loc 2 270 0
  69 001c 2093 E900 		sts 233,r18
  70               	.LVL3:
  71 0020 8FEF      		ldi r24,lo8(-1)
  72               	.LVL4:
  73 0022 00C0      		rjmp .L4
  74               	.L6:
  75               	.LVL5:
  76               	.LBE109:
  77               	.LBE108:
  78               	.LBB110:
  79               	.LBB111:
  80               		.file 3 "/usr/local/Cellar/avr-gcc/4.7.2/lib/gcc/avr/4.7.2/../../../../avr/include/util/delay.h"
   1:/usr/local/Cellar/avr-gcc/4.7.2/lib/gcc/avr/4.7.2/../../../../avr/include/util/delay.h **** /* Copyright (c) 2002, Marek Michalkiewicz
   2:/usr/local/Cellar/avr-gcc/4.7.2/lib/gcc/avr/4.7.2/../../../../avr/include/util/delay.h ****    Copyright (c) 2004,2005,2007 Joerg Wunsch
   3:/usr/local/Cellar/avr-gcc/4.7.2/lib/gcc/avr/4.7.2/../../../../avr/include/util/delay.h ****    Copyright (c) 2007  Florin-Viorel Petrov
   4:/usr/local/Cellar/avr-gcc/4.7.2/lib/gcc/avr/4.7.2/../../../../avr/include/util/delay.h ****    All rights reserved.
   5:/usr/local/Cellar/avr-gcc/4.7.2/lib/gcc/avr/4.7.2/../../../../avr/include/util/delay.h **** 
   6:/usr/local/Cellar/avr-gcc/4.7.2/lib/gcc/avr/4.7.2/../../../../avr/include/util/delay.h ****    Redistribution and use in source and binary forms, with or without
   7:/usr/local/Cellar/avr-gcc/4.7.2/lib/gcc/avr/4.7.2/../../../../avr/include/util/delay.h ****    modification, are permitted provided that the following conditions are met:
   8:/usr/local/Cellar/avr-gcc/4.7.2/lib/gcc/avr/4.7.2/../../../../avr/include/util/delay.h **** 
   9:/usr/local/Cellar/avr-gcc/4.7.2/lib/gcc/avr/4.7.2/../../../../avr/include/util/delay.h ****    * Redistributions of source code must retain the above copyright
  10:/usr/local/Cellar/avr-gcc/4.7.2/lib/gcc/avr/4.7.2/../../../../avr/include/util/delay.h ****      notice, this list of conditions and the following disclaimer.
  11:/usr/local/Cellar/avr-gcc/4.7.2/lib/gcc/avr/4.7.2/../../../../avr/include/util/delay.h **** 
  12:/usr/local/Cellar/avr-gcc/4.7.2/lib/gcc/avr/4.7.2/../../../../avr/include/util/delay.h ****    * Redistributions in binary form must reproduce the above copyright
  13:/usr/local/Cellar/avr-gcc/4.7.2/lib/gcc/avr/4.7.2/../../../../avr/include/util/delay.h ****      notice, this list of conditions and the following disclaimer in
  14:/usr/local/Cellar/avr-gcc/4.7.2/lib/gcc/avr/4.7.2/../../../../avr/include/util/delay.h ****      the documentation and/or other materials provided with the
  15:/usr/local/Cellar/avr-gcc/4.7.2/lib/gcc/avr/4.7.2/../../../../avr/include/util/delay.h ****      distribution.
  16:/usr/local/Cellar/avr-gcc/4.7.2/lib/gcc/avr/4.7.2/../../../../avr/include/util/delay.h **** 
  17:/usr/local/Cellar/avr-gcc/4.7.2/lib/gcc/avr/4.7.2/../../../../avr/include/util/delay.h ****    * Neither the name of the copyright holders nor the names of
  18:/usr/local/Cellar/avr-gcc/4.7.2/lib/gcc/avr/4.7.2/../../../../avr/include/util/delay.h ****      contributors may be used to endorse or promote products derived
  19:/usr/local/Cellar/avr-gcc/4.7.2/lib/gcc/avr/4.7.2/../../../../avr/include/util/delay.h ****      from this software without specific prior written permission.
  20:/usr/local/Cellar/avr-gcc/4.7.2/lib/gcc/avr/4.7.2/../../../../avr/include/util/delay.h **** 
  21:/usr/local/Cellar/avr-gcc/4.7.2/lib/gcc/avr/4.7.2/../../../../avr/include/util/delay.h ****   THIS SOFTWARE IS PROVIDED BY THE COPYRIGHT HOLDERS AND CONTRIBUTORS "AS IS"
  22:/usr/local/Cellar/avr-gcc/4.7.2/lib/gcc/avr/4.7.2/../../../../avr/include/util/delay.h ****   AND ANY EXPRESS OR IMPLIED WARRANTIES, INCLUDING, BUT NOT LIMITED TO, THE
  23:/usr/local/Cellar/avr-gcc/4.7.2/lib/gcc/avr/4.7.2/../../../../avr/include/util/delay.h ****   IMPLIED WARRANTIES OF MERCHANTABILITY AND FITNESS FOR A PARTICULAR PURPOSE
  24:/usr/local/Cellar/avr-gcc/4.7.2/lib/gcc/avr/4.7.2/../../../../avr/include/util/delay.h ****   ARE DISCLAIMED. IN NO EVENT SHALL THE COPYRIGHT OWNER OR CONTRIBUTORS BE
  25:/usr/local/Cellar/avr-gcc/4.7.2/lib/gcc/avr/4.7.2/../../../../avr/include/util/delay.h ****   LIABLE FOR ANY DIRECT, INDIRECT, INCIDENTAL, SPECIAL, EXEMPLARY, OR
  26:/usr/local/Cellar/avr-gcc/4.7.2/lib/gcc/avr/4.7.2/../../../../avr/include/util/delay.h ****   CONSEQUENTIAL DAMAGES (INCLUDING, BUT NOT LIMITED TO, PROCUREMENT OF
  27:/usr/local/Cellar/avr-gcc/4.7.2/lib/gcc/avr/4.7.2/../../../../avr/include/util/delay.h ****   SUBSTITUTE GOODS OR SERVICES; LOSS OF USE, DATA, OR PROFITS; OR BUSINESS
  28:/usr/local/Cellar/avr-gcc/4.7.2/lib/gcc/avr/4.7.2/../../../../avr/include/util/delay.h ****   INTERRUPTION) HOWEVER CAUSED AND ON ANY THEORY OF LIABILITY, WHETHER IN
  29:/usr/local/Cellar/avr-gcc/4.7.2/lib/gcc/avr/4.7.2/../../../../avr/include/util/delay.h ****   CONTRACT, STRICT LIABILITY, OR TORT (INCLUDING NEGLIGENCE OR OTHERWISE)
  30:/usr/local/Cellar/avr-gcc/4.7.2/lib/gcc/avr/4.7.2/../../../../avr/include/util/delay.h ****   ARISING IN ANY WAY OUT OF THE USE OF THIS SOFTWARE, EVEN IF ADVISED OF THE
  31:/usr/local/Cellar/avr-gcc/4.7.2/lib/gcc/avr/4.7.2/../../../../avr/include/util/delay.h ****   POSSIBILITY OF SUCH DAMAGE. */
  32:/usr/local/Cellar/avr-gcc/4.7.2/lib/gcc/avr/4.7.2/../../../../avr/include/util/delay.h **** 
  33:/usr/local/Cellar/avr-gcc/4.7.2/lib/gcc/avr/4.7.2/../../../../avr/include/util/delay.h **** /* $Id: delay.h.in 2251 2011-09-14 08:20:33Z joerg_wunsch $ */
  34:/usr/local/Cellar/avr-gcc/4.7.2/lib/gcc/avr/4.7.2/../../../../avr/include/util/delay.h **** 
  35:/usr/local/Cellar/avr-gcc/4.7.2/lib/gcc/avr/4.7.2/../../../../avr/include/util/delay.h **** #ifndef _UTIL_DELAY_H_
  36:/usr/local/Cellar/avr-gcc/4.7.2/lib/gcc/avr/4.7.2/../../../../avr/include/util/delay.h **** #define _UTIL_DELAY_H_ 1
  37:/usr/local/Cellar/avr-gcc/4.7.2/lib/gcc/avr/4.7.2/../../../../avr/include/util/delay.h **** 
  38:/usr/local/Cellar/avr-gcc/4.7.2/lib/gcc/avr/4.7.2/../../../../avr/include/util/delay.h **** #ifndef __HAS_DELAY_CYCLES
  39:/usr/local/Cellar/avr-gcc/4.7.2/lib/gcc/avr/4.7.2/../../../../avr/include/util/delay.h **** #define __HAS_DELAY_CYCLES 1
  40:/usr/local/Cellar/avr-gcc/4.7.2/lib/gcc/avr/4.7.2/../../../../avr/include/util/delay.h **** #endif
  41:/usr/local/Cellar/avr-gcc/4.7.2/lib/gcc/avr/4.7.2/../../../../avr/include/util/delay.h **** 
  42:/usr/local/Cellar/avr-gcc/4.7.2/lib/gcc/avr/4.7.2/../../../../avr/include/util/delay.h **** #include <inttypes.h>
  43:/usr/local/Cellar/avr-gcc/4.7.2/lib/gcc/avr/4.7.2/../../../../avr/include/util/delay.h **** #include <util/delay_basic.h>
  44:/usr/local/Cellar/avr-gcc/4.7.2/lib/gcc/avr/4.7.2/../../../../avr/include/util/delay.h **** #include <math.h>
  45:/usr/local/Cellar/avr-gcc/4.7.2/lib/gcc/avr/4.7.2/../../../../avr/include/util/delay.h **** 
  46:/usr/local/Cellar/avr-gcc/4.7.2/lib/gcc/avr/4.7.2/../../../../avr/include/util/delay.h **** /** \file */
  47:/usr/local/Cellar/avr-gcc/4.7.2/lib/gcc/avr/4.7.2/../../../../avr/include/util/delay.h **** /** \defgroup util_delay <util/delay.h>: Convenience functions for busy-wait delay loops
  48:/usr/local/Cellar/avr-gcc/4.7.2/lib/gcc/avr/4.7.2/../../../../avr/include/util/delay.h ****     \code
  49:/usr/local/Cellar/avr-gcc/4.7.2/lib/gcc/avr/4.7.2/../../../../avr/include/util/delay.h ****     #define F_CPU 1000000UL  // 1 MHz
  50:/usr/local/Cellar/avr-gcc/4.7.2/lib/gcc/avr/4.7.2/../../../../avr/include/util/delay.h ****     //#define F_CPU 14.7456E6
  51:/usr/local/Cellar/avr-gcc/4.7.2/lib/gcc/avr/4.7.2/../../../../avr/include/util/delay.h ****     #include <util/delay.h>
  52:/usr/local/Cellar/avr-gcc/4.7.2/lib/gcc/avr/4.7.2/../../../../avr/include/util/delay.h ****     \endcode
  53:/usr/local/Cellar/avr-gcc/4.7.2/lib/gcc/avr/4.7.2/../../../../avr/include/util/delay.h **** 
  54:/usr/local/Cellar/avr-gcc/4.7.2/lib/gcc/avr/4.7.2/../../../../avr/include/util/delay.h ****     \note As an alternative method, it is possible to pass the
  55:/usr/local/Cellar/avr-gcc/4.7.2/lib/gcc/avr/4.7.2/../../../../avr/include/util/delay.h ****     F_CPU macro down to the compiler from the Makefile.
  56:/usr/local/Cellar/avr-gcc/4.7.2/lib/gcc/avr/4.7.2/../../../../avr/include/util/delay.h ****     Obviously, in that case, no \c \#define statement should be
  57:/usr/local/Cellar/avr-gcc/4.7.2/lib/gcc/avr/4.7.2/../../../../avr/include/util/delay.h ****     used.
  58:/usr/local/Cellar/avr-gcc/4.7.2/lib/gcc/avr/4.7.2/../../../../avr/include/util/delay.h **** 
  59:/usr/local/Cellar/avr-gcc/4.7.2/lib/gcc/avr/4.7.2/../../../../avr/include/util/delay.h ****     The functions in this header file are wrappers around the basic
  60:/usr/local/Cellar/avr-gcc/4.7.2/lib/gcc/avr/4.7.2/../../../../avr/include/util/delay.h ****     busy-wait functions from <util/delay_basic.h>.  They are meant as
  61:/usr/local/Cellar/avr-gcc/4.7.2/lib/gcc/avr/4.7.2/../../../../avr/include/util/delay.h ****     convenience functions where actual time values can be specified
  62:/usr/local/Cellar/avr-gcc/4.7.2/lib/gcc/avr/4.7.2/../../../../avr/include/util/delay.h ****     rather than a number of cycles to wait for.  The idea behind is
  63:/usr/local/Cellar/avr-gcc/4.7.2/lib/gcc/avr/4.7.2/../../../../avr/include/util/delay.h ****     that compile-time constant expressions will be eliminated by
  64:/usr/local/Cellar/avr-gcc/4.7.2/lib/gcc/avr/4.7.2/../../../../avr/include/util/delay.h ****     compiler optimization so floating-point expressions can be used
  65:/usr/local/Cellar/avr-gcc/4.7.2/lib/gcc/avr/4.7.2/../../../../avr/include/util/delay.h ****     to calculate the number of delay cycles needed based on the CPU
  66:/usr/local/Cellar/avr-gcc/4.7.2/lib/gcc/avr/4.7.2/../../../../avr/include/util/delay.h ****     frequency passed by the macro F_CPU.
  67:/usr/local/Cellar/avr-gcc/4.7.2/lib/gcc/avr/4.7.2/../../../../avr/include/util/delay.h **** 
  68:/usr/local/Cellar/avr-gcc/4.7.2/lib/gcc/avr/4.7.2/../../../../avr/include/util/delay.h ****     \note In order for these functions to work as intended, compiler
  69:/usr/local/Cellar/avr-gcc/4.7.2/lib/gcc/avr/4.7.2/../../../../avr/include/util/delay.h ****     optimizations <em>must</em> be enabled, and the delay time
  70:/usr/local/Cellar/avr-gcc/4.7.2/lib/gcc/avr/4.7.2/../../../../avr/include/util/delay.h ****     <em>must</em> be an expression that is a known constant at
  71:/usr/local/Cellar/avr-gcc/4.7.2/lib/gcc/avr/4.7.2/../../../../avr/include/util/delay.h ****     compile-time.  If these requirements are not met, the resulting
  72:/usr/local/Cellar/avr-gcc/4.7.2/lib/gcc/avr/4.7.2/../../../../avr/include/util/delay.h ****     delay will be much longer (and basically unpredictable), and
  73:/usr/local/Cellar/avr-gcc/4.7.2/lib/gcc/avr/4.7.2/../../../../avr/include/util/delay.h ****     applications that otherwise do not use floating-point calculations
  74:/usr/local/Cellar/avr-gcc/4.7.2/lib/gcc/avr/4.7.2/../../../../avr/include/util/delay.h ****     will experience severe code bloat by the floating-point library
  75:/usr/local/Cellar/avr-gcc/4.7.2/lib/gcc/avr/4.7.2/../../../../avr/include/util/delay.h ****     routines linked into the application.
  76:/usr/local/Cellar/avr-gcc/4.7.2/lib/gcc/avr/4.7.2/../../../../avr/include/util/delay.h **** 
  77:/usr/local/Cellar/avr-gcc/4.7.2/lib/gcc/avr/4.7.2/../../../../avr/include/util/delay.h ****     The functions available allow the specification of microsecond, and
  78:/usr/local/Cellar/avr-gcc/4.7.2/lib/gcc/avr/4.7.2/../../../../avr/include/util/delay.h ****     millisecond delays directly, using the application-supplied macro
  79:/usr/local/Cellar/avr-gcc/4.7.2/lib/gcc/avr/4.7.2/../../../../avr/include/util/delay.h ****     F_CPU as the CPU clock frequency (in Hertz).
  80:/usr/local/Cellar/avr-gcc/4.7.2/lib/gcc/avr/4.7.2/../../../../avr/include/util/delay.h **** 
  81:/usr/local/Cellar/avr-gcc/4.7.2/lib/gcc/avr/4.7.2/../../../../avr/include/util/delay.h **** */
  82:/usr/local/Cellar/avr-gcc/4.7.2/lib/gcc/avr/4.7.2/../../../../avr/include/util/delay.h **** 
  83:/usr/local/Cellar/avr-gcc/4.7.2/lib/gcc/avr/4.7.2/../../../../avr/include/util/delay.h **** #if !defined(__DOXYGEN__)
  84:/usr/local/Cellar/avr-gcc/4.7.2/lib/gcc/avr/4.7.2/../../../../avr/include/util/delay.h **** static inline void _delay_us(double __us) __attribute__((always_inline));
  85:/usr/local/Cellar/avr-gcc/4.7.2/lib/gcc/avr/4.7.2/../../../../avr/include/util/delay.h **** static inline void _delay_ms(double __ms) __attribute__((always_inline));
  86:/usr/local/Cellar/avr-gcc/4.7.2/lib/gcc/avr/4.7.2/../../../../avr/include/util/delay.h **** #endif
  87:/usr/local/Cellar/avr-gcc/4.7.2/lib/gcc/avr/4.7.2/../../../../avr/include/util/delay.h **** 
  88:/usr/local/Cellar/avr-gcc/4.7.2/lib/gcc/avr/4.7.2/../../../../avr/include/util/delay.h **** #ifndef F_CPU
  89:/usr/local/Cellar/avr-gcc/4.7.2/lib/gcc/avr/4.7.2/../../../../avr/include/util/delay.h **** /* prevent compiler error by supplying a default */
  90:/usr/local/Cellar/avr-gcc/4.7.2/lib/gcc/avr/4.7.2/../../../../avr/include/util/delay.h **** # warning "F_CPU not defined for <util/delay.h>"
  91:/usr/local/Cellar/avr-gcc/4.7.2/lib/gcc/avr/4.7.2/../../../../avr/include/util/delay.h **** # define F_CPU 1000000UL
  92:/usr/local/Cellar/avr-gcc/4.7.2/lib/gcc/avr/4.7.2/../../../../avr/include/util/delay.h **** #endif
  93:/usr/local/Cellar/avr-gcc/4.7.2/lib/gcc/avr/4.7.2/../../../../avr/include/util/delay.h **** 
  94:/usr/local/Cellar/avr-gcc/4.7.2/lib/gcc/avr/4.7.2/../../../../avr/include/util/delay.h **** #ifndef __OPTIMIZE__
  95:/usr/local/Cellar/avr-gcc/4.7.2/lib/gcc/avr/4.7.2/../../../../avr/include/util/delay.h **** # warning "Compiler optimizations disabled; functions from <util/delay.h> won't work as designed"
  96:/usr/local/Cellar/avr-gcc/4.7.2/lib/gcc/avr/4.7.2/../../../../avr/include/util/delay.h **** #endif
  97:/usr/local/Cellar/avr-gcc/4.7.2/lib/gcc/avr/4.7.2/../../../../avr/include/util/delay.h **** 
  98:/usr/local/Cellar/avr-gcc/4.7.2/lib/gcc/avr/4.7.2/../../../../avr/include/util/delay.h **** #if __HAS_DELAY_CYCLES && defined(__OPTIMIZE__) && \
  99:/usr/local/Cellar/avr-gcc/4.7.2/lib/gcc/avr/4.7.2/../../../../avr/include/util/delay.h ****   !defined(__DELAY_BACKWARD_COMPATIBLE__) &&	   \
 100:/usr/local/Cellar/avr-gcc/4.7.2/lib/gcc/avr/4.7.2/../../../../avr/include/util/delay.h ****   __STDC_HOSTED__
 101:/usr/local/Cellar/avr-gcc/4.7.2/lib/gcc/avr/4.7.2/../../../../avr/include/util/delay.h **** #  include <math.h>
 102:/usr/local/Cellar/avr-gcc/4.7.2/lib/gcc/avr/4.7.2/../../../../avr/include/util/delay.h **** #endif
 103:/usr/local/Cellar/avr-gcc/4.7.2/lib/gcc/avr/4.7.2/../../../../avr/include/util/delay.h **** 
 104:/usr/local/Cellar/avr-gcc/4.7.2/lib/gcc/avr/4.7.2/../../../../avr/include/util/delay.h **** /**
 105:/usr/local/Cellar/avr-gcc/4.7.2/lib/gcc/avr/4.7.2/../../../../avr/include/util/delay.h ****    \ingroup util_delay
 106:/usr/local/Cellar/avr-gcc/4.7.2/lib/gcc/avr/4.7.2/../../../../avr/include/util/delay.h **** 
 107:/usr/local/Cellar/avr-gcc/4.7.2/lib/gcc/avr/4.7.2/../../../../avr/include/util/delay.h ****    Perform a delay of \c __ms milliseconds, using _delay_loop_2().
 108:/usr/local/Cellar/avr-gcc/4.7.2/lib/gcc/avr/4.7.2/../../../../avr/include/util/delay.h **** 
 109:/usr/local/Cellar/avr-gcc/4.7.2/lib/gcc/avr/4.7.2/../../../../avr/include/util/delay.h ****    The macro F_CPU is supposed to be defined to a
 110:/usr/local/Cellar/avr-gcc/4.7.2/lib/gcc/avr/4.7.2/../../../../avr/include/util/delay.h ****    constant defining the CPU clock frequency (in Hertz).
 111:/usr/local/Cellar/avr-gcc/4.7.2/lib/gcc/avr/4.7.2/../../../../avr/include/util/delay.h **** 
 112:/usr/local/Cellar/avr-gcc/4.7.2/lib/gcc/avr/4.7.2/../../../../avr/include/util/delay.h ****    The maximal possible delay is 262.14 ms / F_CPU in MHz.
 113:/usr/local/Cellar/avr-gcc/4.7.2/lib/gcc/avr/4.7.2/../../../../avr/include/util/delay.h **** 
 114:/usr/local/Cellar/avr-gcc/4.7.2/lib/gcc/avr/4.7.2/../../../../avr/include/util/delay.h ****    When the user request delay which exceed the maximum possible one,
 115:/usr/local/Cellar/avr-gcc/4.7.2/lib/gcc/avr/4.7.2/../../../../avr/include/util/delay.h ****    _delay_ms() provides a decreased resolution functionality. In this
 116:/usr/local/Cellar/avr-gcc/4.7.2/lib/gcc/avr/4.7.2/../../../../avr/include/util/delay.h ****    mode _delay_ms() will work with a resolution of 1/10 ms, providing
 117:/usr/local/Cellar/avr-gcc/4.7.2/lib/gcc/avr/4.7.2/../../../../avr/include/util/delay.h ****    delays up to 6.5535 seconds (independent from CPU frequency).  The
 118:/usr/local/Cellar/avr-gcc/4.7.2/lib/gcc/avr/4.7.2/../../../../avr/include/util/delay.h ****    user will not be informed about decreased resolution.
 119:/usr/local/Cellar/avr-gcc/4.7.2/lib/gcc/avr/4.7.2/../../../../avr/include/util/delay.h **** 
 120:/usr/local/Cellar/avr-gcc/4.7.2/lib/gcc/avr/4.7.2/../../../../avr/include/util/delay.h ****    If the avr-gcc toolchain has __builtin_avr_delay_cycles(unsigned long)
 121:/usr/local/Cellar/avr-gcc/4.7.2/lib/gcc/avr/4.7.2/../../../../avr/include/util/delay.h ****    support, maximal possible delay is 4294967.295 ms/ F_CPU in MHz. For
 122:/usr/local/Cellar/avr-gcc/4.7.2/lib/gcc/avr/4.7.2/../../../../avr/include/util/delay.h ****    values greater than the maximal possible delay, overflows results in
 123:/usr/local/Cellar/avr-gcc/4.7.2/lib/gcc/avr/4.7.2/../../../../avr/include/util/delay.h ****    no delay i.e., 0ms.
 124:/usr/local/Cellar/avr-gcc/4.7.2/lib/gcc/avr/4.7.2/../../../../avr/include/util/delay.h **** 
 125:/usr/local/Cellar/avr-gcc/4.7.2/lib/gcc/avr/4.7.2/../../../../avr/include/util/delay.h ****    Conversion of __us into clock cycles may not always result in integer.
 126:/usr/local/Cellar/avr-gcc/4.7.2/lib/gcc/avr/4.7.2/../../../../avr/include/util/delay.h ****    By default, the clock cycles rounded up to next integer. This ensures that
 127:/usr/local/Cellar/avr-gcc/4.7.2/lib/gcc/avr/4.7.2/../../../../avr/include/util/delay.h ****    the user gets atleast __us microseconds of delay.
 128:/usr/local/Cellar/avr-gcc/4.7.2/lib/gcc/avr/4.7.2/../../../../avr/include/util/delay.h **** 
 129:/usr/local/Cellar/avr-gcc/4.7.2/lib/gcc/avr/4.7.2/../../../../avr/include/util/delay.h ****    Alternatively, user can define __DELAY_ROUND_DOWN__ and __DELAY_ROUND_CLOSEST__
 130:/usr/local/Cellar/avr-gcc/4.7.2/lib/gcc/avr/4.7.2/../../../../avr/include/util/delay.h ****    to round down and round to closest integer.
 131:/usr/local/Cellar/avr-gcc/4.7.2/lib/gcc/avr/4.7.2/../../../../avr/include/util/delay.h **** 
 132:/usr/local/Cellar/avr-gcc/4.7.2/lib/gcc/avr/4.7.2/../../../../avr/include/util/delay.h ****    Note: The new implementation of _delay_ms(double __ms) with 
 133:/usr/local/Cellar/avr-gcc/4.7.2/lib/gcc/avr/4.7.2/../../../../avr/include/util/delay.h ****     __builtin_avr_delay_cycles(unsigned long) support is not backward compatible. 
 134:/usr/local/Cellar/avr-gcc/4.7.2/lib/gcc/avr/4.7.2/../../../../avr/include/util/delay.h ****    User can define __DELAY_BACKWARD_COMPATIBLE__ to get a backward compatible delay.
 135:/usr/local/Cellar/avr-gcc/4.7.2/lib/gcc/avr/4.7.2/../../../../avr/include/util/delay.h ****    Also, the backward compatible
 136:/usr/local/Cellar/avr-gcc/4.7.2/lib/gcc/avr/4.7.2/../../../../avr/include/util/delay.h ****    algorithm will be chosen if the code is compiled in a <em>freestanding
 137:/usr/local/Cellar/avr-gcc/4.7.2/lib/gcc/avr/4.7.2/../../../../avr/include/util/delay.h ****    environment</em> (GCC option \c -ffreestanding), as the math functions
 138:/usr/local/Cellar/avr-gcc/4.7.2/lib/gcc/avr/4.7.2/../../../../avr/include/util/delay.h ****    required for rounding are not available to the compiler then.
 139:/usr/local/Cellar/avr-gcc/4.7.2/lib/gcc/avr/4.7.2/../../../../avr/include/util/delay.h **** 
 140:/usr/local/Cellar/avr-gcc/4.7.2/lib/gcc/avr/4.7.2/../../../../avr/include/util/delay.h ****  */
 141:/usr/local/Cellar/avr-gcc/4.7.2/lib/gcc/avr/4.7.2/../../../../avr/include/util/delay.h **** void
 142:/usr/local/Cellar/avr-gcc/4.7.2/lib/gcc/avr/4.7.2/../../../../avr/include/util/delay.h **** _delay_ms(double __ms)
 143:/usr/local/Cellar/avr-gcc/4.7.2/lib/gcc/avr/4.7.2/../../../../avr/include/util/delay.h **** {
 144:/usr/local/Cellar/avr-gcc/4.7.2/lib/gcc/avr/4.7.2/../../../../avr/include/util/delay.h **** 	uint16_t __ticks;
 145:/usr/local/Cellar/avr-gcc/4.7.2/lib/gcc/avr/4.7.2/../../../../avr/include/util/delay.h **** 	double __tmp ; 
 146:/usr/local/Cellar/avr-gcc/4.7.2/lib/gcc/avr/4.7.2/../../../../avr/include/util/delay.h **** #if __HAS_DELAY_CYCLES && defined(__OPTIMIZE__) && \
 147:/usr/local/Cellar/avr-gcc/4.7.2/lib/gcc/avr/4.7.2/../../../../avr/include/util/delay.h ****   !defined(__DELAY_BACKWARD_COMPATIBLE__) &&	   \
 148:/usr/local/Cellar/avr-gcc/4.7.2/lib/gcc/avr/4.7.2/../../../../avr/include/util/delay.h ****   __STDC_HOSTED__
 149:/usr/local/Cellar/avr-gcc/4.7.2/lib/gcc/avr/4.7.2/../../../../avr/include/util/delay.h **** 	uint32_t __ticks_dc;
 150:/usr/local/Cellar/avr-gcc/4.7.2/lib/gcc/avr/4.7.2/../../../../avr/include/util/delay.h **** 	extern void __builtin_avr_delay_cycles(unsigned long);
 151:/usr/local/Cellar/avr-gcc/4.7.2/lib/gcc/avr/4.7.2/../../../../avr/include/util/delay.h **** 	__tmp = ((F_CPU) / 1e3) * __ms;
 152:/usr/local/Cellar/avr-gcc/4.7.2/lib/gcc/avr/4.7.2/../../../../avr/include/util/delay.h **** 
 153:/usr/local/Cellar/avr-gcc/4.7.2/lib/gcc/avr/4.7.2/../../../../avr/include/util/delay.h **** 	#if defined(__DELAY_ROUND_DOWN__)
 154:/usr/local/Cellar/avr-gcc/4.7.2/lib/gcc/avr/4.7.2/../../../../avr/include/util/delay.h **** 		__ticks_dc = (uint32_t)fabs(__tmp);
 155:/usr/local/Cellar/avr-gcc/4.7.2/lib/gcc/avr/4.7.2/../../../../avr/include/util/delay.h **** 
 156:/usr/local/Cellar/avr-gcc/4.7.2/lib/gcc/avr/4.7.2/../../../../avr/include/util/delay.h **** 	#elif defined(__DELAY_ROUND_CLOSEST__)
 157:/usr/local/Cellar/avr-gcc/4.7.2/lib/gcc/avr/4.7.2/../../../../avr/include/util/delay.h **** 		__ticks_dc = (uint32_t)(fabs(__tmp)+0.5);
 158:/usr/local/Cellar/avr-gcc/4.7.2/lib/gcc/avr/4.7.2/../../../../avr/include/util/delay.h **** 
 159:/usr/local/Cellar/avr-gcc/4.7.2/lib/gcc/avr/4.7.2/../../../../avr/include/util/delay.h **** 	#else
 160:/usr/local/Cellar/avr-gcc/4.7.2/lib/gcc/avr/4.7.2/../../../../avr/include/util/delay.h **** 		//round up by default
 161:/usr/local/Cellar/avr-gcc/4.7.2/lib/gcc/avr/4.7.2/../../../../avr/include/util/delay.h **** 		__ticks_dc = (uint32_t)(ceil(fabs(__tmp)));
 162:/usr/local/Cellar/avr-gcc/4.7.2/lib/gcc/avr/4.7.2/../../../../avr/include/util/delay.h **** 	#endif
 163:/usr/local/Cellar/avr-gcc/4.7.2/lib/gcc/avr/4.7.2/../../../../avr/include/util/delay.h **** 
 164:/usr/local/Cellar/avr-gcc/4.7.2/lib/gcc/avr/4.7.2/../../../../avr/include/util/delay.h **** 	__builtin_avr_delay_cycles(__ticks_dc);
 165:/usr/local/Cellar/avr-gcc/4.7.2/lib/gcc/avr/4.7.2/../../../../avr/include/util/delay.h **** 
 166:/usr/local/Cellar/avr-gcc/4.7.2/lib/gcc/avr/4.7.2/../../../../avr/include/util/delay.h **** #else
 167:/usr/local/Cellar/avr-gcc/4.7.2/lib/gcc/avr/4.7.2/../../../../avr/include/util/delay.h **** 	__tmp = ((F_CPU) / 4e3) * __ms;
 168:/usr/local/Cellar/avr-gcc/4.7.2/lib/gcc/avr/4.7.2/../../../../avr/include/util/delay.h **** 	if (__tmp < 1.0)
 169:/usr/local/Cellar/avr-gcc/4.7.2/lib/gcc/avr/4.7.2/../../../../avr/include/util/delay.h **** 		__ticks = 1;
 170:/usr/local/Cellar/avr-gcc/4.7.2/lib/gcc/avr/4.7.2/../../../../avr/include/util/delay.h **** 	else if (__tmp > 65535)
 171:/usr/local/Cellar/avr-gcc/4.7.2/lib/gcc/avr/4.7.2/../../../../avr/include/util/delay.h **** 	{
 172:/usr/local/Cellar/avr-gcc/4.7.2/lib/gcc/avr/4.7.2/../../../../avr/include/util/delay.h **** 		//	__ticks = requested delay in 1/10 ms
 173:/usr/local/Cellar/avr-gcc/4.7.2/lib/gcc/avr/4.7.2/../../../../avr/include/util/delay.h **** 		__ticks = (uint16_t) (__ms * 10.0);
 174:/usr/local/Cellar/avr-gcc/4.7.2/lib/gcc/avr/4.7.2/../../../../avr/include/util/delay.h **** 		while(__ticks)
 175:/usr/local/Cellar/avr-gcc/4.7.2/lib/gcc/avr/4.7.2/../../../../avr/include/util/delay.h **** 		{
 176:/usr/local/Cellar/avr-gcc/4.7.2/lib/gcc/avr/4.7.2/../../../../avr/include/util/delay.h **** 			// wait 1/10 ms
 177:/usr/local/Cellar/avr-gcc/4.7.2/lib/gcc/avr/4.7.2/../../../../avr/include/util/delay.h **** 			_delay_loop_2(((F_CPU) / 4e3) / 10);
 178:/usr/local/Cellar/avr-gcc/4.7.2/lib/gcc/avr/4.7.2/../../../../avr/include/util/delay.h **** 			__ticks --;
 179:/usr/local/Cellar/avr-gcc/4.7.2/lib/gcc/avr/4.7.2/../../../../avr/include/util/delay.h **** 		}
 180:/usr/local/Cellar/avr-gcc/4.7.2/lib/gcc/avr/4.7.2/../../../../avr/include/util/delay.h **** 		return;
 181:/usr/local/Cellar/avr-gcc/4.7.2/lib/gcc/avr/4.7.2/../../../../avr/include/util/delay.h **** 	}
 182:/usr/local/Cellar/avr-gcc/4.7.2/lib/gcc/avr/4.7.2/../../../../avr/include/util/delay.h **** 	else
 183:/usr/local/Cellar/avr-gcc/4.7.2/lib/gcc/avr/4.7.2/../../../../avr/include/util/delay.h **** 		__ticks = (uint16_t)__tmp;
 184:/usr/local/Cellar/avr-gcc/4.7.2/lib/gcc/avr/4.7.2/../../../../avr/include/util/delay.h **** 	_delay_loop_2(__ticks);
 185:/usr/local/Cellar/avr-gcc/4.7.2/lib/gcc/avr/4.7.2/../../../../avr/include/util/delay.h **** #endif
 186:/usr/local/Cellar/avr-gcc/4.7.2/lib/gcc/avr/4.7.2/../../../../avr/include/util/delay.h **** }
 187:/usr/local/Cellar/avr-gcc/4.7.2/lib/gcc/avr/4.7.2/../../../../avr/include/util/delay.h **** 
 188:/usr/local/Cellar/avr-gcc/4.7.2/lib/gcc/avr/4.7.2/../../../../avr/include/util/delay.h **** /**
 189:/usr/local/Cellar/avr-gcc/4.7.2/lib/gcc/avr/4.7.2/../../../../avr/include/util/delay.h ****    \ingroup util_delay
 190:/usr/local/Cellar/avr-gcc/4.7.2/lib/gcc/avr/4.7.2/../../../../avr/include/util/delay.h **** 
 191:/usr/local/Cellar/avr-gcc/4.7.2/lib/gcc/avr/4.7.2/../../../../avr/include/util/delay.h ****    Perform a delay of \c __us microseconds, using _delay_loop_1().
 192:/usr/local/Cellar/avr-gcc/4.7.2/lib/gcc/avr/4.7.2/../../../../avr/include/util/delay.h **** 
 193:/usr/local/Cellar/avr-gcc/4.7.2/lib/gcc/avr/4.7.2/../../../../avr/include/util/delay.h ****    The macro F_CPU is supposed to be defined to a
 194:/usr/local/Cellar/avr-gcc/4.7.2/lib/gcc/avr/4.7.2/../../../../avr/include/util/delay.h ****    constant defining the CPU clock frequency (in Hertz).
 195:/usr/local/Cellar/avr-gcc/4.7.2/lib/gcc/avr/4.7.2/../../../../avr/include/util/delay.h **** 
 196:/usr/local/Cellar/avr-gcc/4.7.2/lib/gcc/avr/4.7.2/../../../../avr/include/util/delay.h ****    The maximal possible delay is 768 us / F_CPU in MHz.
 197:/usr/local/Cellar/avr-gcc/4.7.2/lib/gcc/avr/4.7.2/../../../../avr/include/util/delay.h **** 
 198:/usr/local/Cellar/avr-gcc/4.7.2/lib/gcc/avr/4.7.2/../../../../avr/include/util/delay.h ****    If the user requests a delay greater than the maximal possible one,
 199:/usr/local/Cellar/avr-gcc/4.7.2/lib/gcc/avr/4.7.2/../../../../avr/include/util/delay.h ****    _delay_us() will automatically call _delay_ms() instead.  The user
 200:/usr/local/Cellar/avr-gcc/4.7.2/lib/gcc/avr/4.7.2/../../../../avr/include/util/delay.h ****    will not be informed about this case.
 201:/usr/local/Cellar/avr-gcc/4.7.2/lib/gcc/avr/4.7.2/../../../../avr/include/util/delay.h **** 
 202:/usr/local/Cellar/avr-gcc/4.7.2/lib/gcc/avr/4.7.2/../../../../avr/include/util/delay.h ****    If the avr-gcc toolchain has __builtin_avr_delay_cycles(unsigned long)
 203:/usr/local/Cellar/avr-gcc/4.7.2/lib/gcc/avr/4.7.2/../../../../avr/include/util/delay.h ****    support, maximal possible delay is 4294967.295 us/ F_CPU in MHz. For
 204:/usr/local/Cellar/avr-gcc/4.7.2/lib/gcc/avr/4.7.2/../../../../avr/include/util/delay.h ****    values greater than the maximal possible delay, overflow results in
 205:/usr/local/Cellar/avr-gcc/4.7.2/lib/gcc/avr/4.7.2/../../../../avr/include/util/delay.h ****    no delay i.e., 0us.
 206:/usr/local/Cellar/avr-gcc/4.7.2/lib/gcc/avr/4.7.2/../../../../avr/include/util/delay.h ****   
 207:/usr/local/Cellar/avr-gcc/4.7.2/lib/gcc/avr/4.7.2/../../../../avr/include/util/delay.h ****    Conversion of __us into clock cycles may not always result in integer.
 208:/usr/local/Cellar/avr-gcc/4.7.2/lib/gcc/avr/4.7.2/../../../../avr/include/util/delay.h ****    By default, the clock cycles rounded up to next integer. This ensures that
 209:/usr/local/Cellar/avr-gcc/4.7.2/lib/gcc/avr/4.7.2/../../../../avr/include/util/delay.h ****    the user gets atleast __us microseconds of delay.
 210:/usr/local/Cellar/avr-gcc/4.7.2/lib/gcc/avr/4.7.2/../../../../avr/include/util/delay.h **** 
 211:/usr/local/Cellar/avr-gcc/4.7.2/lib/gcc/avr/4.7.2/../../../../avr/include/util/delay.h ****    Alternatively, user can define __DELAY_ROUND_DOWN__ and __DELAY_ROUND_CLOSEST__
 212:/usr/local/Cellar/avr-gcc/4.7.2/lib/gcc/avr/4.7.2/../../../../avr/include/util/delay.h ****    to round down and round to closest integer.
 213:/usr/local/Cellar/avr-gcc/4.7.2/lib/gcc/avr/4.7.2/../../../../avr/include/util/delay.h ****  
 214:/usr/local/Cellar/avr-gcc/4.7.2/lib/gcc/avr/4.7.2/../../../../avr/include/util/delay.h ****    Note: The new implementation of _delay_us(double __us) with 
 215:/usr/local/Cellar/avr-gcc/4.7.2/lib/gcc/avr/4.7.2/../../../../avr/include/util/delay.h ****     __builtin_avr_delay_cycles(unsigned long) support is not backward compatible.
 216:/usr/local/Cellar/avr-gcc/4.7.2/lib/gcc/avr/4.7.2/../../../../avr/include/util/delay.h ****    User can define __DELAY_BACKWARD_COMPATIBLE__ to get a backward compatible delay.
 217:/usr/local/Cellar/avr-gcc/4.7.2/lib/gcc/avr/4.7.2/../../../../avr/include/util/delay.h ****    Also, the backward compatible
 218:/usr/local/Cellar/avr-gcc/4.7.2/lib/gcc/avr/4.7.2/../../../../avr/include/util/delay.h ****    algorithm will be chosen if the code is compiled in a <em>freestanding
 219:/usr/local/Cellar/avr-gcc/4.7.2/lib/gcc/avr/4.7.2/../../../../avr/include/util/delay.h ****    environment</em> (GCC option \c -ffreestanding), as the math functions
 220:/usr/local/Cellar/avr-gcc/4.7.2/lib/gcc/avr/4.7.2/../../../../avr/include/util/delay.h ****    required for rounding are not available to the compiler then.
 221:/usr/local/Cellar/avr-gcc/4.7.2/lib/gcc/avr/4.7.2/../../../../avr/include/util/delay.h **** 
 222:/usr/local/Cellar/avr-gcc/4.7.2/lib/gcc/avr/4.7.2/../../../../avr/include/util/delay.h ****  */
 223:/usr/local/Cellar/avr-gcc/4.7.2/lib/gcc/avr/4.7.2/../../../../avr/include/util/delay.h **** void
 224:/usr/local/Cellar/avr-gcc/4.7.2/lib/gcc/avr/4.7.2/../../../../avr/include/util/delay.h **** _delay_us(double __us)
 225:/usr/local/Cellar/avr-gcc/4.7.2/lib/gcc/avr/4.7.2/../../../../avr/include/util/delay.h **** {
 226:/usr/local/Cellar/avr-gcc/4.7.2/lib/gcc/avr/4.7.2/../../../../avr/include/util/delay.h **** 	uint8_t __ticks;
 227:/usr/local/Cellar/avr-gcc/4.7.2/lib/gcc/avr/4.7.2/../../../../avr/include/util/delay.h **** 	double __tmp ; 
 228:/usr/local/Cellar/avr-gcc/4.7.2/lib/gcc/avr/4.7.2/../../../../avr/include/util/delay.h **** #if __HAS_DELAY_CYCLES && defined(__OPTIMIZE__) && \
 229:/usr/local/Cellar/avr-gcc/4.7.2/lib/gcc/avr/4.7.2/../../../../avr/include/util/delay.h ****   !defined(__DELAY_BACKWARD_COMPATIBLE__) &&	   \
 230:/usr/local/Cellar/avr-gcc/4.7.2/lib/gcc/avr/4.7.2/../../../../avr/include/util/delay.h ****   __STDC_HOSTED__
 231:/usr/local/Cellar/avr-gcc/4.7.2/lib/gcc/avr/4.7.2/../../../../avr/include/util/delay.h **** 	uint32_t __ticks_dc;
 232:/usr/local/Cellar/avr-gcc/4.7.2/lib/gcc/avr/4.7.2/../../../../avr/include/util/delay.h **** 	extern void __builtin_avr_delay_cycles(unsigned long);
 233:/usr/local/Cellar/avr-gcc/4.7.2/lib/gcc/avr/4.7.2/../../../../avr/include/util/delay.h **** 	__tmp = ((F_CPU) / 1e6) * __us;
 234:/usr/local/Cellar/avr-gcc/4.7.2/lib/gcc/avr/4.7.2/../../../../avr/include/util/delay.h **** 
 235:/usr/local/Cellar/avr-gcc/4.7.2/lib/gcc/avr/4.7.2/../../../../avr/include/util/delay.h **** 	#if defined(__DELAY_ROUND_DOWN__)
 236:/usr/local/Cellar/avr-gcc/4.7.2/lib/gcc/avr/4.7.2/../../../../avr/include/util/delay.h **** 		__ticks_dc = (uint32_t)fabs(__tmp);
 237:/usr/local/Cellar/avr-gcc/4.7.2/lib/gcc/avr/4.7.2/../../../../avr/include/util/delay.h **** 
 238:/usr/local/Cellar/avr-gcc/4.7.2/lib/gcc/avr/4.7.2/../../../../avr/include/util/delay.h **** 	#elif defined(__DELAY_ROUND_CLOSEST__)
 239:/usr/local/Cellar/avr-gcc/4.7.2/lib/gcc/avr/4.7.2/../../../../avr/include/util/delay.h **** 		__ticks_dc = (uint32_t)(fabs(__tmp)+0.5);
 240:/usr/local/Cellar/avr-gcc/4.7.2/lib/gcc/avr/4.7.2/../../../../avr/include/util/delay.h **** 
 241:/usr/local/Cellar/avr-gcc/4.7.2/lib/gcc/avr/4.7.2/../../../../avr/include/util/delay.h **** 	#else
 242:/usr/local/Cellar/avr-gcc/4.7.2/lib/gcc/avr/4.7.2/../../../../avr/include/util/delay.h **** 		//round up by default
 243:/usr/local/Cellar/avr-gcc/4.7.2/lib/gcc/avr/4.7.2/../../../../avr/include/util/delay.h **** 		__ticks_dc = (uint32_t)(ceil(fabs(__tmp)));
 244:/usr/local/Cellar/avr-gcc/4.7.2/lib/gcc/avr/4.7.2/../../../../avr/include/util/delay.h **** 	#endif
 245:/usr/local/Cellar/avr-gcc/4.7.2/lib/gcc/avr/4.7.2/../../../../avr/include/util/delay.h **** 
 246:/usr/local/Cellar/avr-gcc/4.7.2/lib/gcc/avr/4.7.2/../../../../avr/include/util/delay.h **** 	__builtin_avr_delay_cycles(__ticks_dc);
  81               		.loc 3 246 0
  82 0024 95ED      		ldi r25,lo8(-43)
  83 0026 9A95      		1: dec r25
  84 0028 01F4      		brne 1b
  85 002a 0000      		nop
  86               	.LBE111:
  87               	.LBE110:
 448:../../protocol/lufa/lufa.c ****         .report_id = REPORT_ID_CONSUMER,
 449:../../protocol/lufa/lufa.c ****         .usage = data
 450:../../protocol/lufa/lufa.c ****     };
 451:../../protocol/lufa/lufa.c ****     Endpoint_SelectEndpoint(EXTRAKEY_IN_EPNUM);
 452:../../protocol/lufa/lufa.c **** 
 453:../../protocol/lufa/lufa.c ****     /* Check if write ready for a polling interval around 10ms */
 454:../../protocol/lufa/lufa.c ****     while (timeout-- && !Endpoint_IsReadWriteAllowed()) _delay_us(40);
  88               		.loc 1 454 0
  89 002c 8823      		tst r24
  90 002e 01F0      		breq .L5
  91               	.LVL6:
  92               	.L4:
  93               	.LBB112:
  94               	.LBB113:
 271:../../protocol/lufa/LUFA-120730/LUFA/Drivers/USB/Core/AVR8/../AVR8/Endpoint_AVR8.h **** 				#endif
 272:../../protocol/lufa/LUFA-120730/LUFA/Drivers/USB/Core/AVR8/../AVR8/Endpoint_AVR8.h **** 			}
 273:../../protocol/lufa/LUFA-120730/LUFA/Drivers/USB/Core/AVR8/../AVR8/Endpoint_AVR8.h **** 
 274:../../protocol/lufa/LUFA-120730/LUFA/Drivers/USB/Core/AVR8/../AVR8/Endpoint_AVR8.h **** 			/** Resets the endpoint bank FIFO. This clears all the endpoint banks and resets the USB control
 275:../../protocol/lufa/LUFA-120730/LUFA/Drivers/USB/Core/AVR8/../AVR8/Endpoint_AVR8.h **** 			 *  data In and Out pointers to the bank's contents.
 276:../../protocol/lufa/LUFA-120730/LUFA/Drivers/USB/Core/AVR8/../AVR8/Endpoint_AVR8.h **** 			 *
 277:../../protocol/lufa/LUFA-120730/LUFA/Drivers/USB/Core/AVR8/../AVR8/Endpoint_AVR8.h **** 			 *  \param[in] Address  Endpoint address whose FIFO buffers are to be reset.
 278:../../protocol/lufa/LUFA-120730/LUFA/Drivers/USB/Core/AVR8/../AVR8/Endpoint_AVR8.h **** 			 */
 279:../../protocol/lufa/LUFA-120730/LUFA/Drivers/USB/Core/AVR8/../AVR8/Endpoint_AVR8.h **** 			static inline void Endpoint_ResetEndpoint(const uint8_t Address) ATTR_ALWAYS_INLINE;
 280:../../protocol/lufa/LUFA-120730/LUFA/Drivers/USB/Core/AVR8/../AVR8/Endpoint_AVR8.h **** 			static inline void Endpoint_ResetEndpoint(const uint8_t Address)
 281:../../protocol/lufa/LUFA-120730/LUFA/Drivers/USB/Core/AVR8/../AVR8/Endpoint_AVR8.h **** 			{
 282:../../protocol/lufa/LUFA-120730/LUFA/Drivers/USB/Core/AVR8/../AVR8/Endpoint_AVR8.h **** 				UERST = (1 << (Address & ENDPOINT_EPNUM_MASK));
 283:../../protocol/lufa/LUFA-120730/LUFA/Drivers/USB/Core/AVR8/../AVR8/Endpoint_AVR8.h **** 				UERST = 0;
 284:../../protocol/lufa/LUFA-120730/LUFA/Drivers/USB/Core/AVR8/../AVR8/Endpoint_AVR8.h **** 			}
 285:../../protocol/lufa/LUFA-120730/LUFA/Drivers/USB/Core/AVR8/../AVR8/Endpoint_AVR8.h **** 
 286:../../protocol/lufa/LUFA-120730/LUFA/Drivers/USB/Core/AVR8/../AVR8/Endpoint_AVR8.h **** 			/** Enables the currently selected endpoint so that data can be sent and received through it to
 287:../../protocol/lufa/LUFA-120730/LUFA/Drivers/USB/Core/AVR8/../AVR8/Endpoint_AVR8.h **** 			 *  and from a host.
 288:../../protocol/lufa/LUFA-120730/LUFA/Drivers/USB/Core/AVR8/../AVR8/Endpoint_AVR8.h **** 			 *
 289:../../protocol/lufa/LUFA-120730/LUFA/Drivers/USB/Core/AVR8/../AVR8/Endpoint_AVR8.h **** 			 *  \note Endpoints must first be configured properly via \ref Endpoint_ConfigureEndpoint().
 290:../../protocol/lufa/LUFA-120730/LUFA/Drivers/USB/Core/AVR8/../AVR8/Endpoint_AVR8.h **** 			 */
 291:../../protocol/lufa/LUFA-120730/LUFA/Drivers/USB/Core/AVR8/../AVR8/Endpoint_AVR8.h **** 			static inline void Endpoint_EnableEndpoint(void) ATTR_ALWAYS_INLINE;
 292:../../protocol/lufa/LUFA-120730/LUFA/Drivers/USB/Core/AVR8/../AVR8/Endpoint_AVR8.h **** 			static inline void Endpoint_EnableEndpoint(void)
 293:../../protocol/lufa/LUFA-120730/LUFA/Drivers/USB/Core/AVR8/../AVR8/Endpoint_AVR8.h **** 			{
 294:../../protocol/lufa/LUFA-120730/LUFA/Drivers/USB/Core/AVR8/../AVR8/Endpoint_AVR8.h **** 				UECONX |= (1 << EPEN);
 295:../../protocol/lufa/LUFA-120730/LUFA/Drivers/USB/Core/AVR8/../AVR8/Endpoint_AVR8.h **** 			}
 296:../../protocol/lufa/LUFA-120730/LUFA/Drivers/USB/Core/AVR8/../AVR8/Endpoint_AVR8.h **** 
 297:../../protocol/lufa/LUFA-120730/LUFA/Drivers/USB/Core/AVR8/../AVR8/Endpoint_AVR8.h **** 			/** Disables the currently selected endpoint so that data cannot be sent and received through it
 298:../../protocol/lufa/LUFA-120730/LUFA/Drivers/USB/Core/AVR8/../AVR8/Endpoint_AVR8.h **** 			 *  to and from a host.
 299:../../protocol/lufa/LUFA-120730/LUFA/Drivers/USB/Core/AVR8/../AVR8/Endpoint_AVR8.h **** 			 */
 300:../../protocol/lufa/LUFA-120730/LUFA/Drivers/USB/Core/AVR8/../AVR8/Endpoint_AVR8.h **** 			static inline void Endpoint_DisableEndpoint(void) ATTR_ALWAYS_INLINE;
 301:../../protocol/lufa/LUFA-120730/LUFA/Drivers/USB/Core/AVR8/../AVR8/Endpoint_AVR8.h **** 			static inline void Endpoint_DisableEndpoint(void)
 302:../../protocol/lufa/LUFA-120730/LUFA/Drivers/USB/Core/AVR8/../AVR8/Endpoint_AVR8.h **** 			{
 303:../../protocol/lufa/LUFA-120730/LUFA/Drivers/USB/Core/AVR8/../AVR8/Endpoint_AVR8.h **** 				UECONX &= ~(1 << EPEN);
 304:../../protocol/lufa/LUFA-120730/LUFA/Drivers/USB/Core/AVR8/../AVR8/Endpoint_AVR8.h **** 			}
 305:../../protocol/lufa/LUFA-120730/LUFA/Drivers/USB/Core/AVR8/../AVR8/Endpoint_AVR8.h **** 
 306:../../protocol/lufa/LUFA-120730/LUFA/Drivers/USB/Core/AVR8/../AVR8/Endpoint_AVR8.h **** 			/** Determines if the currently selected endpoint is enabled, but not necessarily configured.
 307:../../protocol/lufa/LUFA-120730/LUFA/Drivers/USB/Core/AVR8/../AVR8/Endpoint_AVR8.h **** 			 *
 308:../../protocol/lufa/LUFA-120730/LUFA/Drivers/USB/Core/AVR8/../AVR8/Endpoint_AVR8.h **** 			 * \return Boolean \c true if the currently selected endpoint is enabled, \c false otherwise.
 309:../../protocol/lufa/LUFA-120730/LUFA/Drivers/USB/Core/AVR8/../AVR8/Endpoint_AVR8.h **** 			 */
 310:../../protocol/lufa/LUFA-120730/LUFA/Drivers/USB/Core/AVR8/../AVR8/Endpoint_AVR8.h **** 			static inline bool Endpoint_IsEnabled(void) ATTR_WARN_UNUSED_RESULT ATTR_ALWAYS_INLINE;
 311:../../protocol/lufa/LUFA-120730/LUFA/Drivers/USB/Core/AVR8/../AVR8/Endpoint_AVR8.h **** 			static inline bool Endpoint_IsEnabled(void)
 312:../../protocol/lufa/LUFA-120730/LUFA/Drivers/USB/Core/AVR8/../AVR8/Endpoint_AVR8.h **** 			{
 313:../../protocol/lufa/LUFA-120730/LUFA/Drivers/USB/Core/AVR8/../AVR8/Endpoint_AVR8.h **** 				return ((UECONX & (1 << EPEN)) ? true : false);
 314:../../protocol/lufa/LUFA-120730/LUFA/Drivers/USB/Core/AVR8/../AVR8/Endpoint_AVR8.h **** 			}
 315:../../protocol/lufa/LUFA-120730/LUFA/Drivers/USB/Core/AVR8/../AVR8/Endpoint_AVR8.h **** 
 316:../../protocol/lufa/LUFA-120730/LUFA/Drivers/USB/Core/AVR8/../AVR8/Endpoint_AVR8.h **** 			/** Retrieves the number of busy banks in the currently selected endpoint, which have been queue
 317:../../protocol/lufa/LUFA-120730/LUFA/Drivers/USB/Core/AVR8/../AVR8/Endpoint_AVR8.h **** 			 *  transmission via the \ref Endpoint_ClearIN() command, or are awaiting acknowledgement via th
 318:../../protocol/lufa/LUFA-120730/LUFA/Drivers/USB/Core/AVR8/../AVR8/Endpoint_AVR8.h **** 			 *  \ref Endpoint_ClearOUT() command.
 319:../../protocol/lufa/LUFA-120730/LUFA/Drivers/USB/Core/AVR8/../AVR8/Endpoint_AVR8.h **** 			 *
 320:../../protocol/lufa/LUFA-120730/LUFA/Drivers/USB/Core/AVR8/../AVR8/Endpoint_AVR8.h **** 			 *  \ingroup Group_EndpointPacketManagement_AVR8
 321:../../protocol/lufa/LUFA-120730/LUFA/Drivers/USB/Core/AVR8/../AVR8/Endpoint_AVR8.h **** 			 *
 322:../../protocol/lufa/LUFA-120730/LUFA/Drivers/USB/Core/AVR8/../AVR8/Endpoint_AVR8.h **** 			 *  \return Total number of busy banks in the selected endpoint.
 323:../../protocol/lufa/LUFA-120730/LUFA/Drivers/USB/Core/AVR8/../AVR8/Endpoint_AVR8.h **** 			 */
 324:../../protocol/lufa/LUFA-120730/LUFA/Drivers/USB/Core/AVR8/../AVR8/Endpoint_AVR8.h **** 			static inline uint8_t Endpoint_GetBusyBanks(void) ATTR_ALWAYS_INLINE ATTR_WARN_UNUSED_RESULT;
 325:../../protocol/lufa/LUFA-120730/LUFA/Drivers/USB/Core/AVR8/../AVR8/Endpoint_AVR8.h **** 			static inline uint8_t Endpoint_GetBusyBanks(void)
 326:../../protocol/lufa/LUFA-120730/LUFA/Drivers/USB/Core/AVR8/../AVR8/Endpoint_AVR8.h **** 			{
 327:../../protocol/lufa/LUFA-120730/LUFA/Drivers/USB/Core/AVR8/../AVR8/Endpoint_AVR8.h **** 				return (UESTA0X & (0x03 << NBUSYBK0));
 328:../../protocol/lufa/LUFA-120730/LUFA/Drivers/USB/Core/AVR8/../AVR8/Endpoint_AVR8.h **** 			}
 329:../../protocol/lufa/LUFA-120730/LUFA/Drivers/USB/Core/AVR8/../AVR8/Endpoint_AVR8.h **** 
 330:../../protocol/lufa/LUFA-120730/LUFA/Drivers/USB/Core/AVR8/../AVR8/Endpoint_AVR8.h **** 			/** Aborts all pending IN transactions on the currently selected endpoint, once the bank
 331:../../protocol/lufa/LUFA-120730/LUFA/Drivers/USB/Core/AVR8/../AVR8/Endpoint_AVR8.h **** 			 *  has been queued for transmission to the host via \ref Endpoint_ClearIN(). This function
 332:../../protocol/lufa/LUFA-120730/LUFA/Drivers/USB/Core/AVR8/../AVR8/Endpoint_AVR8.h **** 			 *  will terminate all queued transactions, resetting the endpoint banks ready for a new
 333:../../protocol/lufa/LUFA-120730/LUFA/Drivers/USB/Core/AVR8/../AVR8/Endpoint_AVR8.h **** 			 *  packet.
 334:../../protocol/lufa/LUFA-120730/LUFA/Drivers/USB/Core/AVR8/../AVR8/Endpoint_AVR8.h **** 			 *
 335:../../protocol/lufa/LUFA-120730/LUFA/Drivers/USB/Core/AVR8/../AVR8/Endpoint_AVR8.h **** 			 *  \ingroup Group_EndpointPacketManagement_AVR8
 336:../../protocol/lufa/LUFA-120730/LUFA/Drivers/USB/Core/AVR8/../AVR8/Endpoint_AVR8.h **** 			 */
 337:../../protocol/lufa/LUFA-120730/LUFA/Drivers/USB/Core/AVR8/../AVR8/Endpoint_AVR8.h **** 			static inline void Endpoint_AbortPendingIN(void)
 338:../../protocol/lufa/LUFA-120730/LUFA/Drivers/USB/Core/AVR8/../AVR8/Endpoint_AVR8.h **** 			{
 339:../../protocol/lufa/LUFA-120730/LUFA/Drivers/USB/Core/AVR8/../AVR8/Endpoint_AVR8.h **** 				while (Endpoint_GetBusyBanks() != 0)
 340:../../protocol/lufa/LUFA-120730/LUFA/Drivers/USB/Core/AVR8/../AVR8/Endpoint_AVR8.h **** 				{
 341:../../protocol/lufa/LUFA-120730/LUFA/Drivers/USB/Core/AVR8/../AVR8/Endpoint_AVR8.h **** 					UEINTX |= (1 << RXOUTI);
 342:../../protocol/lufa/LUFA-120730/LUFA/Drivers/USB/Core/AVR8/../AVR8/Endpoint_AVR8.h **** 					while (UEINTX & (1 << RXOUTI));
 343:../../protocol/lufa/LUFA-120730/LUFA/Drivers/USB/Core/AVR8/../AVR8/Endpoint_AVR8.h **** 				}
 344:../../protocol/lufa/LUFA-120730/LUFA/Drivers/USB/Core/AVR8/../AVR8/Endpoint_AVR8.h **** 			}
 345:../../protocol/lufa/LUFA-120730/LUFA/Drivers/USB/Core/AVR8/../AVR8/Endpoint_AVR8.h **** 
 346:../../protocol/lufa/LUFA-120730/LUFA/Drivers/USB/Core/AVR8/../AVR8/Endpoint_AVR8.h **** 			/** Determines if the currently selected endpoint may be read from (if data is waiting in the en
 347:../../protocol/lufa/LUFA-120730/LUFA/Drivers/USB/Core/AVR8/../AVR8/Endpoint_AVR8.h **** 			 *  bank and the endpoint is an OUT direction, or if the bank is not yet full if the endpoint is
 348:../../protocol/lufa/LUFA-120730/LUFA/Drivers/USB/Core/AVR8/../AVR8/Endpoint_AVR8.h **** 			 *  direction). This function will return false if an error has occurred in the endpoint, if the
 349:../../protocol/lufa/LUFA-120730/LUFA/Drivers/USB/Core/AVR8/../AVR8/Endpoint_AVR8.h **** 			 *  is an OUT direction and no packet (or an empty packet) has been received, or if the endpoint
 350:../../protocol/lufa/LUFA-120730/LUFA/Drivers/USB/Core/AVR8/../AVR8/Endpoint_AVR8.h **** 			 *  direction and the endpoint bank is full.
 351:../../protocol/lufa/LUFA-120730/LUFA/Drivers/USB/Core/AVR8/../AVR8/Endpoint_AVR8.h **** 			 *
 352:../../protocol/lufa/LUFA-120730/LUFA/Drivers/USB/Core/AVR8/../AVR8/Endpoint_AVR8.h **** 			 *  \ingroup Group_EndpointPacketManagement_AVR8
 353:../../protocol/lufa/LUFA-120730/LUFA/Drivers/USB/Core/AVR8/../AVR8/Endpoint_AVR8.h **** 			 *
 354:../../protocol/lufa/LUFA-120730/LUFA/Drivers/USB/Core/AVR8/../AVR8/Endpoint_AVR8.h **** 			 *  \return Boolean \c true if the currently selected endpoint may be read from or written to, d
 355:../../protocol/lufa/LUFA-120730/LUFA/Drivers/USB/Core/AVR8/../AVR8/Endpoint_AVR8.h **** 			 *          on its direction.
 356:../../protocol/lufa/LUFA-120730/LUFA/Drivers/USB/Core/AVR8/../AVR8/Endpoint_AVR8.h **** 			 */
 357:../../protocol/lufa/LUFA-120730/LUFA/Drivers/USB/Core/AVR8/../AVR8/Endpoint_AVR8.h **** 			static inline bool Endpoint_IsReadWriteAllowed(void) ATTR_WARN_UNUSED_RESULT ATTR_ALWAYS_INLINE;
 358:../../protocol/lufa/LUFA-120730/LUFA/Drivers/USB/Core/AVR8/../AVR8/Endpoint_AVR8.h **** 			static inline bool Endpoint_IsReadWriteAllowed(void)
 359:../../protocol/lufa/LUFA-120730/LUFA/Drivers/USB/Core/AVR8/../AVR8/Endpoint_AVR8.h **** 			{
 360:../../protocol/lufa/LUFA-120730/LUFA/Drivers/USB/Core/AVR8/../AVR8/Endpoint_AVR8.h **** 				return ((UEINTX & (1 << RWAL)) ? true : false);
  95               		.loc 2 360 0
  96 0030 9091 E800 		lds r25,232
  97 0034 8150      		subi r24,lo8(-(-1))
  98               	.LBE113:
  99               	.LBE112:
 100               		.loc 1 454 0
 101 0036 95FF      		sbrs r25,5
 102 0038 00C0      		rjmp .L6
 103               	.L5:
 104               	.LBB114:
 105               	.LBB115:
 106               		.loc 2 360 0
 107 003a 8091 E800 		lds r24,232
 108               	.LBE115:
 109               	.LBE114:
 455:../../protocol/lufa/lufa.c ****     if (!Endpoint_IsReadWriteAllowed()) return;
 110               		.loc 1 455 0
 111 003e 85FF      		sbrs r24,5
 112 0040 00C0      		rjmp .L2
 456:../../protocol/lufa/lufa.c **** 
 457:../../protocol/lufa/lufa.c ****     Endpoint_Write_Stream_LE(&r, sizeof(report_extra_t), NULL);
 113               		.loc 1 457 0
 114 0042 40E0      		ldi r20,0
 115 0044 50E0      		ldi r21,0
 116 0046 63E0      		ldi r22,lo8(3)
 117 0048 70E0      		ldi r23,0
 118 004a CE01      		movw r24,r28
 119 004c 0196      		adiw r24,1
 120 004e 0E94 0000 		call Endpoint_Write_Stream_LE
 121               	.LVL7:
 122               	.LBB116:
 123               	.LBB117:
 361:../../protocol/lufa/LUFA-120730/LUFA/Drivers/USB/Core/AVR8/../AVR8/Endpoint_AVR8.h **** 			}
 362:../../protocol/lufa/LUFA-120730/LUFA/Drivers/USB/Core/AVR8/../AVR8/Endpoint_AVR8.h **** 
 363:../../protocol/lufa/LUFA-120730/LUFA/Drivers/USB/Core/AVR8/../AVR8/Endpoint_AVR8.h **** 			/** Determines if the currently selected endpoint is configured.
 364:../../protocol/lufa/LUFA-120730/LUFA/Drivers/USB/Core/AVR8/../AVR8/Endpoint_AVR8.h **** 			 *
 365:../../protocol/lufa/LUFA-120730/LUFA/Drivers/USB/Core/AVR8/../AVR8/Endpoint_AVR8.h **** 			 *  \return Boolean \c true if the currently selected endpoint has been configured, \c false oth
 366:../../protocol/lufa/LUFA-120730/LUFA/Drivers/USB/Core/AVR8/../AVR8/Endpoint_AVR8.h **** 			 */
 367:../../protocol/lufa/LUFA-120730/LUFA/Drivers/USB/Core/AVR8/../AVR8/Endpoint_AVR8.h **** 			static inline bool Endpoint_IsConfigured(void) ATTR_WARN_UNUSED_RESULT ATTR_ALWAYS_INLINE;
 368:../../protocol/lufa/LUFA-120730/LUFA/Drivers/USB/Core/AVR8/../AVR8/Endpoint_AVR8.h **** 			static inline bool Endpoint_IsConfigured(void)
 369:../../protocol/lufa/LUFA-120730/LUFA/Drivers/USB/Core/AVR8/../AVR8/Endpoint_AVR8.h **** 			{
 370:../../protocol/lufa/LUFA-120730/LUFA/Drivers/USB/Core/AVR8/../AVR8/Endpoint_AVR8.h **** 				return ((UESTA0X & (1 << CFGOK)) ? true : false);
 371:../../protocol/lufa/LUFA-120730/LUFA/Drivers/USB/Core/AVR8/../AVR8/Endpoint_AVR8.h **** 			}
 372:../../protocol/lufa/LUFA-120730/LUFA/Drivers/USB/Core/AVR8/../AVR8/Endpoint_AVR8.h **** 
 373:../../protocol/lufa/LUFA-120730/LUFA/Drivers/USB/Core/AVR8/../AVR8/Endpoint_AVR8.h **** 			/** Returns a mask indicating which INTERRUPT type endpoints have interrupted - i.e. their
 374:../../protocol/lufa/LUFA-120730/LUFA/Drivers/USB/Core/AVR8/../AVR8/Endpoint_AVR8.h **** 			 *  interrupt duration has elapsed. Which endpoints have interrupted can be determined by
 375:../../protocol/lufa/LUFA-120730/LUFA/Drivers/USB/Core/AVR8/../AVR8/Endpoint_AVR8.h **** 			 *  masking the return value against <tt>(1 << <i>{Endpoint Number}</i>)</tt>.
 376:../../protocol/lufa/LUFA-120730/LUFA/Drivers/USB/Core/AVR8/../AVR8/Endpoint_AVR8.h **** 			 *
 377:../../protocol/lufa/LUFA-120730/LUFA/Drivers/USB/Core/AVR8/../AVR8/Endpoint_AVR8.h **** 			 *  \return Mask whose bits indicate which endpoints have interrupted.
 378:../../protocol/lufa/LUFA-120730/LUFA/Drivers/USB/Core/AVR8/../AVR8/Endpoint_AVR8.h **** 			 */
 379:../../protocol/lufa/LUFA-120730/LUFA/Drivers/USB/Core/AVR8/../AVR8/Endpoint_AVR8.h **** 			static inline uint8_t Endpoint_GetEndpointInterrupts(void) ATTR_WARN_UNUSED_RESULT ATTR_ALWAYS_I
 380:../../protocol/lufa/LUFA-120730/LUFA/Drivers/USB/Core/AVR8/../AVR8/Endpoint_AVR8.h **** 			static inline uint8_t Endpoint_GetEndpointInterrupts(void)
 381:../../protocol/lufa/LUFA-120730/LUFA/Drivers/USB/Core/AVR8/../AVR8/Endpoint_AVR8.h **** 			{
 382:../../protocol/lufa/LUFA-120730/LUFA/Drivers/USB/Core/AVR8/../AVR8/Endpoint_AVR8.h **** 				return UEINT;
 383:../../protocol/lufa/LUFA-120730/LUFA/Drivers/USB/Core/AVR8/../AVR8/Endpoint_AVR8.h **** 			}
 384:../../protocol/lufa/LUFA-120730/LUFA/Drivers/USB/Core/AVR8/../AVR8/Endpoint_AVR8.h **** 
 385:../../protocol/lufa/LUFA-120730/LUFA/Drivers/USB/Core/AVR8/../AVR8/Endpoint_AVR8.h **** 			/** Determines if the specified endpoint number has interrupted (valid only for INTERRUPT type
 386:../../protocol/lufa/LUFA-120730/LUFA/Drivers/USB/Core/AVR8/../AVR8/Endpoint_AVR8.h **** 			 *  endpoints).
 387:../../protocol/lufa/LUFA-120730/LUFA/Drivers/USB/Core/AVR8/../AVR8/Endpoint_AVR8.h **** 			 *
 388:../../protocol/lufa/LUFA-120730/LUFA/Drivers/USB/Core/AVR8/../AVR8/Endpoint_AVR8.h **** 			 *  \param[in] Address  Address of the endpoint whose interrupt flag should be tested.
 389:../../protocol/lufa/LUFA-120730/LUFA/Drivers/USB/Core/AVR8/../AVR8/Endpoint_AVR8.h **** 			 *
 390:../../protocol/lufa/LUFA-120730/LUFA/Drivers/USB/Core/AVR8/../AVR8/Endpoint_AVR8.h **** 			 *  \return Boolean \c true if the specified endpoint has interrupted, \c false otherwise.
 391:../../protocol/lufa/LUFA-120730/LUFA/Drivers/USB/Core/AVR8/../AVR8/Endpoint_AVR8.h **** 			 */
 392:../../protocol/lufa/LUFA-120730/LUFA/Drivers/USB/Core/AVR8/../AVR8/Endpoint_AVR8.h **** 			static inline bool Endpoint_HasEndpointInterrupted(const uint8_t Address) ATTR_WARN_UNUSED_RESUL
 393:../../protocol/lufa/LUFA-120730/LUFA/Drivers/USB/Core/AVR8/../AVR8/Endpoint_AVR8.h **** 			static inline bool Endpoint_HasEndpointInterrupted(const uint8_t Address)
 394:../../protocol/lufa/LUFA-120730/LUFA/Drivers/USB/Core/AVR8/../AVR8/Endpoint_AVR8.h **** 			{
 395:../../protocol/lufa/LUFA-120730/LUFA/Drivers/USB/Core/AVR8/../AVR8/Endpoint_AVR8.h **** 				return ((Endpoint_GetEndpointInterrupts() & (1 << (Address & ENDPOINT_EPNUM_MASK))) ? true : fa
 396:../../protocol/lufa/LUFA-120730/LUFA/Drivers/USB/Core/AVR8/../AVR8/Endpoint_AVR8.h **** 			}
 397:../../protocol/lufa/LUFA-120730/LUFA/Drivers/USB/Core/AVR8/../AVR8/Endpoint_AVR8.h **** 
 398:../../protocol/lufa/LUFA-120730/LUFA/Drivers/USB/Core/AVR8/../AVR8/Endpoint_AVR8.h **** 			/** Determines if the selected IN endpoint is ready for a new packet to be sent to the host.
 399:../../protocol/lufa/LUFA-120730/LUFA/Drivers/USB/Core/AVR8/../AVR8/Endpoint_AVR8.h **** 			 *
 400:../../protocol/lufa/LUFA-120730/LUFA/Drivers/USB/Core/AVR8/../AVR8/Endpoint_AVR8.h **** 			 *  \ingroup Group_EndpointPacketManagement_AVR8
 401:../../protocol/lufa/LUFA-120730/LUFA/Drivers/USB/Core/AVR8/../AVR8/Endpoint_AVR8.h **** 			 *
 402:../../protocol/lufa/LUFA-120730/LUFA/Drivers/USB/Core/AVR8/../AVR8/Endpoint_AVR8.h **** 			 *  \return Boolean \c true if the current endpoint is ready for an IN packet, \c false otherwis
 403:../../protocol/lufa/LUFA-120730/LUFA/Drivers/USB/Core/AVR8/../AVR8/Endpoint_AVR8.h **** 			 */
 404:../../protocol/lufa/LUFA-120730/LUFA/Drivers/USB/Core/AVR8/../AVR8/Endpoint_AVR8.h **** 			static inline bool Endpoint_IsINReady(void) ATTR_WARN_UNUSED_RESULT ATTR_ALWAYS_INLINE;
 405:../../protocol/lufa/LUFA-120730/LUFA/Drivers/USB/Core/AVR8/../AVR8/Endpoint_AVR8.h **** 			static inline bool Endpoint_IsINReady(void)
 406:../../protocol/lufa/LUFA-120730/LUFA/Drivers/USB/Core/AVR8/../AVR8/Endpoint_AVR8.h **** 			{
 407:../../protocol/lufa/LUFA-120730/LUFA/Drivers/USB/Core/AVR8/../AVR8/Endpoint_AVR8.h **** 				return ((UEINTX & (1 << TXINI)) ? true : false);
 408:../../protocol/lufa/LUFA-120730/LUFA/Drivers/USB/Core/AVR8/../AVR8/Endpoint_AVR8.h **** 			}
 409:../../protocol/lufa/LUFA-120730/LUFA/Drivers/USB/Core/AVR8/../AVR8/Endpoint_AVR8.h **** 
 410:../../protocol/lufa/LUFA-120730/LUFA/Drivers/USB/Core/AVR8/../AVR8/Endpoint_AVR8.h **** 			/** Determines if the selected OUT endpoint has received new packet from the host.
 411:../../protocol/lufa/LUFA-120730/LUFA/Drivers/USB/Core/AVR8/../AVR8/Endpoint_AVR8.h **** 			 *
 412:../../protocol/lufa/LUFA-120730/LUFA/Drivers/USB/Core/AVR8/../AVR8/Endpoint_AVR8.h **** 			 *  \ingroup Group_EndpointPacketManagement_AVR8
 413:../../protocol/lufa/LUFA-120730/LUFA/Drivers/USB/Core/AVR8/../AVR8/Endpoint_AVR8.h **** 			 *
 414:../../protocol/lufa/LUFA-120730/LUFA/Drivers/USB/Core/AVR8/../AVR8/Endpoint_AVR8.h **** 			 *  \return Boolean \c true if current endpoint is has received an OUT packet, \c false otherwis
 415:../../protocol/lufa/LUFA-120730/LUFA/Drivers/USB/Core/AVR8/../AVR8/Endpoint_AVR8.h **** 			 */
 416:../../protocol/lufa/LUFA-120730/LUFA/Drivers/USB/Core/AVR8/../AVR8/Endpoint_AVR8.h **** 			static inline bool Endpoint_IsOUTReceived(void) ATTR_WARN_UNUSED_RESULT ATTR_ALWAYS_INLINE;
 417:../../protocol/lufa/LUFA-120730/LUFA/Drivers/USB/Core/AVR8/../AVR8/Endpoint_AVR8.h **** 			static inline bool Endpoint_IsOUTReceived(void)
 418:../../protocol/lufa/LUFA-120730/LUFA/Drivers/USB/Core/AVR8/../AVR8/Endpoint_AVR8.h **** 			{
 419:../../protocol/lufa/LUFA-120730/LUFA/Drivers/USB/Core/AVR8/../AVR8/Endpoint_AVR8.h **** 				return ((UEINTX & (1 << RXOUTI)) ? true : false);
 420:../../protocol/lufa/LUFA-120730/LUFA/Drivers/USB/Core/AVR8/../AVR8/Endpoint_AVR8.h **** 			}
 421:../../protocol/lufa/LUFA-120730/LUFA/Drivers/USB/Core/AVR8/../AVR8/Endpoint_AVR8.h **** 
 422:../../protocol/lufa/LUFA-120730/LUFA/Drivers/USB/Core/AVR8/../AVR8/Endpoint_AVR8.h **** 			/** Determines if the current CONTROL type endpoint has received a SETUP packet.
 423:../../protocol/lufa/LUFA-120730/LUFA/Drivers/USB/Core/AVR8/../AVR8/Endpoint_AVR8.h **** 			 *
 424:../../protocol/lufa/LUFA-120730/LUFA/Drivers/USB/Core/AVR8/../AVR8/Endpoint_AVR8.h **** 			 *  \ingroup Group_EndpointPacketManagement_AVR8
 425:../../protocol/lufa/LUFA-120730/LUFA/Drivers/USB/Core/AVR8/../AVR8/Endpoint_AVR8.h **** 			 *
 426:../../protocol/lufa/LUFA-120730/LUFA/Drivers/USB/Core/AVR8/../AVR8/Endpoint_AVR8.h **** 			 *  \return Boolean \c true if the selected endpoint has received a SETUP packet, \c false other
 427:../../protocol/lufa/LUFA-120730/LUFA/Drivers/USB/Core/AVR8/../AVR8/Endpoint_AVR8.h **** 			 */
 428:../../protocol/lufa/LUFA-120730/LUFA/Drivers/USB/Core/AVR8/../AVR8/Endpoint_AVR8.h **** 			static inline bool Endpoint_IsSETUPReceived(void) ATTR_WARN_UNUSED_RESULT ATTR_ALWAYS_INLINE;
 429:../../protocol/lufa/LUFA-120730/LUFA/Drivers/USB/Core/AVR8/../AVR8/Endpoint_AVR8.h **** 			static inline bool Endpoint_IsSETUPReceived(void)
 430:../../protocol/lufa/LUFA-120730/LUFA/Drivers/USB/Core/AVR8/../AVR8/Endpoint_AVR8.h **** 			{
 431:../../protocol/lufa/LUFA-120730/LUFA/Drivers/USB/Core/AVR8/../AVR8/Endpoint_AVR8.h **** 				return ((UEINTX & (1 << RXSTPI)) ? true : false);
 432:../../protocol/lufa/LUFA-120730/LUFA/Drivers/USB/Core/AVR8/../AVR8/Endpoint_AVR8.h **** 			}
 433:../../protocol/lufa/LUFA-120730/LUFA/Drivers/USB/Core/AVR8/../AVR8/Endpoint_AVR8.h **** 
 434:../../protocol/lufa/LUFA-120730/LUFA/Drivers/USB/Core/AVR8/../AVR8/Endpoint_AVR8.h **** 			/** Clears a received SETUP packet on the currently selected CONTROL type endpoint, freeing up t
 435:../../protocol/lufa/LUFA-120730/LUFA/Drivers/USB/Core/AVR8/../AVR8/Endpoint_AVR8.h **** 			 *  endpoint for the next packet.
 436:../../protocol/lufa/LUFA-120730/LUFA/Drivers/USB/Core/AVR8/../AVR8/Endpoint_AVR8.h **** 			 *
 437:../../protocol/lufa/LUFA-120730/LUFA/Drivers/USB/Core/AVR8/../AVR8/Endpoint_AVR8.h **** 			 *  \ingroup Group_EndpointPacketManagement_AVR8
 438:../../protocol/lufa/LUFA-120730/LUFA/Drivers/USB/Core/AVR8/../AVR8/Endpoint_AVR8.h **** 			 *
 439:../../protocol/lufa/LUFA-120730/LUFA/Drivers/USB/Core/AVR8/../AVR8/Endpoint_AVR8.h **** 			 *  \note This is not applicable for non CONTROL type endpoints.
 440:../../protocol/lufa/LUFA-120730/LUFA/Drivers/USB/Core/AVR8/../AVR8/Endpoint_AVR8.h **** 			 */
 441:../../protocol/lufa/LUFA-120730/LUFA/Drivers/USB/Core/AVR8/../AVR8/Endpoint_AVR8.h **** 			static inline void Endpoint_ClearSETUP(void) ATTR_ALWAYS_INLINE;
 442:../../protocol/lufa/LUFA-120730/LUFA/Drivers/USB/Core/AVR8/../AVR8/Endpoint_AVR8.h **** 			static inline void Endpoint_ClearSETUP(void)
 443:../../protocol/lufa/LUFA-120730/LUFA/Drivers/USB/Core/AVR8/../AVR8/Endpoint_AVR8.h **** 			{
 444:../../protocol/lufa/LUFA-120730/LUFA/Drivers/USB/Core/AVR8/../AVR8/Endpoint_AVR8.h **** 				UEINTX &= ~(1 << RXSTPI);
 445:../../protocol/lufa/LUFA-120730/LUFA/Drivers/USB/Core/AVR8/../AVR8/Endpoint_AVR8.h **** 			}
 446:../../protocol/lufa/LUFA-120730/LUFA/Drivers/USB/Core/AVR8/../AVR8/Endpoint_AVR8.h **** 
 447:../../protocol/lufa/LUFA-120730/LUFA/Drivers/USB/Core/AVR8/../AVR8/Endpoint_AVR8.h **** 			/** Sends an IN packet to the host on the currently selected endpoint, freeing up the endpoint f
 448:../../protocol/lufa/LUFA-120730/LUFA/Drivers/USB/Core/AVR8/../AVR8/Endpoint_AVR8.h **** 			 *  next packet and switching to the alternative endpoint bank if double banked.
 449:../../protocol/lufa/LUFA-120730/LUFA/Drivers/USB/Core/AVR8/../AVR8/Endpoint_AVR8.h **** 			 *
 450:../../protocol/lufa/LUFA-120730/LUFA/Drivers/USB/Core/AVR8/../AVR8/Endpoint_AVR8.h **** 			 *  \ingroup Group_EndpointPacketManagement_AVR8
 451:../../protocol/lufa/LUFA-120730/LUFA/Drivers/USB/Core/AVR8/../AVR8/Endpoint_AVR8.h **** 			 */
 452:../../protocol/lufa/LUFA-120730/LUFA/Drivers/USB/Core/AVR8/../AVR8/Endpoint_AVR8.h **** 			static inline void Endpoint_ClearIN(void) ATTR_ALWAYS_INLINE;
 453:../../protocol/lufa/LUFA-120730/LUFA/Drivers/USB/Core/AVR8/../AVR8/Endpoint_AVR8.h **** 			static inline void Endpoint_ClearIN(void)
 454:../../protocol/lufa/LUFA-120730/LUFA/Drivers/USB/Core/AVR8/../AVR8/Endpoint_AVR8.h **** 			{
 455:../../protocol/lufa/LUFA-120730/LUFA/Drivers/USB/Core/AVR8/../AVR8/Endpoint_AVR8.h **** 				#if !defined(CONTROL_ONLY_DEVICE)
 456:../../protocol/lufa/LUFA-120730/LUFA/Drivers/USB/Core/AVR8/../AVR8/Endpoint_AVR8.h **** 					UEINTX &= ~((1 << TXINI) | (1 << FIFOCON));
 124               		.loc 2 456 0
 125 0052 8091 E800 		lds r24,232
 126 0056 8E77      		andi r24,lo8(126)
 127 0058 8093 E800 		sts 232,r24
 128               	.LVL8:
 129               	.L2:
 130               	/* epilogue start */
 131               	.LBE117:
 132               	.LBE116:
 458:../../protocol/lufa/lufa.c ****     Endpoint_ClearIN();
 459:../../protocol/lufa/lufa.c **** }
 133               		.loc 1 459 0
 134 005c 0F90      		pop __tmp_reg__
 135 005e 0F90      		pop __tmp_reg__
 136 0060 0F90      		pop __tmp_reg__
 137 0062 DF91      		pop r29
 138 0064 CF91      		pop r28
 139 0066 0895      		ret
 140               		.cfi_endproc
 141               	.LFE116:
 143               		.section	.text.send_system,"ax",@progbits
 145               	send_system:
 146               	.LFB115:
 420:../../protocol/lufa/lufa.c **** {
 147               		.loc 1 420 0
 148               		.cfi_startproc
 149               	.LVL9:
 150 0000 CF93      		push r28
 151               	.LCFI4:
 152               		.cfi_def_cfa_offset 3
 153               		.cfi_offset 28, -2
 154 0002 DF93      		push r29
 155               	.LCFI5:
 156               		.cfi_def_cfa_offset 4
 157               		.cfi_offset 29, -3
 158 0004 00D0      		rcall .
 159 0006 1F92      		push __zero_reg__
 160               	.LCFI6:
 161               		.cfi_def_cfa_offset 7
 162 0008 CDB7      		in r28,__SP_L__
 163 000a DEB7      		in r29,__SP_H__
 164               	.LCFI7:
 165               		.cfi_def_cfa_register 28
 166               	/* prologue: function */
 167               	/* frame size = 3 */
 168               	/* stack size = 5 */
 169               	.L__stack_usage = 5
 170               	.LVL10:
 423:../../protocol/lufa/lufa.c ****     if (USB_DeviceState != DEVICE_STATE_Configured)
 171               		.loc 1 423 0
 172 000c 2091 0000 		lds r18,USB_DeviceState
 173 0010 2430      		cpi r18,lo8(4)
 174 0012 01F4      		brne .L14
 426:../../protocol/lufa/lufa.c ****     report_extra_t r = {
 175               		.loc 1 426 0
 176 0014 22E0      		ldi r18,lo8(2)
 177 0016 2983      		std Y+1,r18
 178 0018 9B83      		std Y+3,r25
 179 001a 8A83      		std Y+2,r24
 180               	.LVL11:
 181               	.LBB118:
 182               	.LBB119:
 270:../../protocol/lufa/LUFA-120730/LUFA/Drivers/USB/Core/AVR8/../AVR8/Endpoint_AVR8.h **** 					UENUM = (Address & ENDPOINT_EPNUM_MASK);
 183               		.loc 2 270 0
 184 001c 83E0      		ldi r24,lo8(3)
 185               	.LVL12:
 186 001e 8093 E900 		sts 233,r24
 187               	.LVL13:
 188 0022 8FEF      		ldi r24,lo8(-1)
 189 0024 00C0      		rjmp .L16
 190               	.L18:
 191               	.LVL14:
 192               	.LBE119:
 193               	.LBE118:
 194               	.LBB120:
 195               	.LBB121:
 196               		.loc 3 246 0
 197 0026 95ED      		ldi r25,lo8(-43)
 198 0028 9A95      		1: dec r25
 199 002a 01F4      		brne 1b
 200 002c 0000      		nop
 201               	.LBE121:
 202               	.LBE120:
 433:../../protocol/lufa/lufa.c ****     while (timeout-- && !Endpoint_IsReadWriteAllowed()) _delay_us(40);
 203               		.loc 1 433 0
 204 002e 8823      		tst r24
 205 0030 01F0      		breq .L17
 206               	.LVL15:
 207               	.L16:
 208               	.LBB122:
 209               	.LBB123:
 360:../../protocol/lufa/LUFA-120730/LUFA/Drivers/USB/Core/AVR8/../AVR8/Endpoint_AVR8.h **** 				return ((UEINTX & (1 << RWAL)) ? true : false);
 210               		.loc 2 360 0
 211 0032 9091 E800 		lds r25,232
 212 0036 8150      		subi r24,lo8(-(-1))
 213               	.LBE123:
 214               	.LBE122:
 433:../../protocol/lufa/lufa.c ****     while (timeout-- && !Endpoint_IsReadWriteAllowed()) _delay_us(40);
 215               		.loc 1 433 0
 216 0038 95FF      		sbrs r25,5
 217 003a 00C0      		rjmp .L18
 218               	.L17:
 219               	.LBB124:
 220               	.LBB125:
 360:../../protocol/lufa/LUFA-120730/LUFA/Drivers/USB/Core/AVR8/../AVR8/Endpoint_AVR8.h **** 				return ((UEINTX & (1 << RWAL)) ? true : false);
 221               		.loc 2 360 0
 222 003c 8091 E800 		lds r24,232
 223               	.LBE125:
 224               	.LBE124:
 434:../../protocol/lufa/lufa.c ****     if (!Endpoint_IsReadWriteAllowed()) return;
 225               		.loc 1 434 0
 226 0040 85FF      		sbrs r24,5
 227 0042 00C0      		rjmp .L14
 436:../../protocol/lufa/lufa.c ****     Endpoint_Write_Stream_LE(&r, sizeof(report_extra_t), NULL);
 228               		.loc 1 436 0
 229 0044 40E0      		ldi r20,0
 230 0046 50E0      		ldi r21,0
 231 0048 63E0      		ldi r22,lo8(3)
 232 004a 70E0      		ldi r23,0
 233 004c CE01      		movw r24,r28
 234 004e 0196      		adiw r24,1
 235 0050 0E94 0000 		call Endpoint_Write_Stream_LE
 236               	.LVL16:
 237               	.LBB126:
 238               	.LBB127:
 239               		.loc 2 456 0
 240 0054 8091 E800 		lds r24,232
 241 0058 8E77      		andi r24,lo8(126)
 242 005a 8093 E800 		sts 232,r24
 243               	.LVL17:
 244               	.L14:
 245               	/* epilogue start */
 246               	.LBE127:
 247               	.LBE126:
 438:../../protocol/lufa/lufa.c **** }
 248               		.loc 1 438 0
 249 005e 0F90      		pop __tmp_reg__
 250 0060 0F90      		pop __tmp_reg__
 251 0062 0F90      		pop __tmp_reg__
 252 0064 DF91      		pop r29
 253 0066 CF91      		pop r28
 254 0068 0895      		ret
 255               		.cfi_endproc
 256               	.LFE115:
 258               		.section	.text.send_mouse,"ax",@progbits
 260               	send_mouse:
 261               	.LFB114:
 397:../../protocol/lufa/lufa.c **** {
 262               		.loc 1 397 0
 263               		.cfi_startproc
 264               	.LVL18:
 265               	/* prologue: function */
 266               	/* frame size = 0 */
 267               	/* stack size = 0 */
 268               	.L__stack_usage = 0
 401:../../protocol/lufa/lufa.c ****     if (USB_DeviceState != DEVICE_STATE_Configured)
 269               		.loc 1 401 0
 270 0000 2091 0000 		lds r18,USB_DeviceState
 271 0004 2430      		cpi r18,lo8(4)
 272 0006 01F4      		brne .L26
 273               	.LVL19:
 274               	.LBB128:
 275               	.LBB129:
 270:../../protocol/lufa/LUFA-120730/LUFA/Drivers/USB/Core/AVR8/../AVR8/Endpoint_AVR8.h **** 					UENUM = (Address & ENDPOINT_EPNUM_MASK);
 276               		.loc 2 270 0
 277 0008 22E0      		ldi r18,lo8(2)
 278 000a 2093 E900 		sts 233,r18
 279               	.LVL20:
 280 000e 2FEF      		ldi r18,lo8(-1)
 281 0010 00C0      		rjmp .L29
 282               	.L31:
 283               	.LVL21:
 284               	.LBE129:
 285               	.LBE128:
 286               	.LBB130:
 287               	.LBB131:
 288               		.loc 3 246 0
 289 0012 35ED      		ldi r19,lo8(-43)
 290 0014 3A95      		1: dec r19
 291 0016 01F4      		brne 1b
 292 0018 0000      		nop
 293               	.LBE131:
 294               	.LBE130:
 408:../../protocol/lufa/lufa.c ****     while (timeout-- && !Endpoint_IsReadWriteAllowed()) _delay_us(40);
 295               		.loc 1 408 0
 296 001a 2223      		tst r18
 297 001c 01F0      		breq .L30
 298               	.LVL22:
 299               	.L29:
 300               	.LBB132:
 301               	.LBB133:
 360:../../protocol/lufa/LUFA-120730/LUFA/Drivers/USB/Core/AVR8/../AVR8/Endpoint_AVR8.h **** 				return ((UEINTX & (1 << RWAL)) ? true : false);
 302               		.loc 2 360 0
 303 001e 3091 E800 		lds r19,232
 304 0022 2150      		subi r18,lo8(-(-1))
 305               	.LBE133:
 306               	.LBE132:
 408:../../protocol/lufa/lufa.c ****     while (timeout-- && !Endpoint_IsReadWriteAllowed()) _delay_us(40);
 307               		.loc 1 408 0
 308 0024 35FF      		sbrs r19,5
 309 0026 00C0      		rjmp .L31
 310               	.L30:
 311               	.LBB134:
 312               	.LBB135:
 360:../../protocol/lufa/LUFA-120730/LUFA/Drivers/USB/Core/AVR8/../AVR8/Endpoint_AVR8.h **** 				return ((UEINTX & (1 << RWAL)) ? true : false);
 313               		.loc 2 360 0
 314 0028 2091 E800 		lds r18,232
 315               	.LBE135:
 316               	.LBE134:
 409:../../protocol/lufa/lufa.c ****     if (!Endpoint_IsReadWriteAllowed()) return;
 317               		.loc 1 409 0
 318 002c 25FF      		sbrs r18,5
 319 002e 00C0      		rjmp .L26
 412:../../protocol/lufa/lufa.c ****     Endpoint_Write_Stream_LE(report, sizeof(report_mouse_t), NULL);
 320               		.loc 1 412 0
 321 0030 40E0      		ldi r20,0
 322 0032 50E0      		ldi r21,0
 323 0034 65E0      		ldi r22,lo8(5)
 324 0036 70E0      		ldi r23,0
 325 0038 0E94 0000 		call Endpoint_Write_Stream_LE
 326               	.LVL23:
 327               	.LBB136:
 328               	.LBB137:
 329               		.loc 2 456 0
 330 003c 8091 E800 		lds r24,232
 331 0040 8E77      		andi r24,lo8(126)
 332 0042 8093 E800 		sts 232,r24
 333               	.LVL24:
 334               	.L26:
 335 0046 0895      		ret
 336               	.LBE137:
 337               	.LBE136:
 338               		.cfi_endproc
 339               	.LFE114:
 341               		.section	.text.send_keyboard,"ax",@progbits
 343               	send_keyboard:
 344               	.LFB113:
 357:../../protocol/lufa/lufa.c **** {
 345               		.loc 1 357 0
 346               		.cfi_startproc
 347               	.LVL25:
 348 0000 CF93      		push r28
 349               	.LCFI8:
 350               		.cfi_def_cfa_offset 3
 351               		.cfi_offset 28, -2
 352 0002 DF93      		push r29
 353               	.LCFI9:
 354               		.cfi_def_cfa_offset 4
 355               		.cfi_offset 29, -3
 356               	/* prologue: function */
 357               	/* frame size = 0 */
 358               	/* stack size = 2 */
 359               	.L__stack_usage = 2
 360 0004 EC01      		movw r28,r24
 361               	.LVL26:
 360:../../protocol/lufa/lufa.c ****     if (USB_DeviceState != DEVICE_STATE_Configured)
 362               		.loc 1 360 0
 363 0006 8091 0000 		lds r24,USB_DeviceState
 364               	.LVL27:
 365 000a 8430      		cpi r24,lo8(4)
 366 000c 01F0      		breq .+2
 367 000e 00C0      		rjmp .L39
 365:../../protocol/lufa/lufa.c ****     if (keyboard_nkro) {
 368               		.loc 1 365 0
 369 0010 9091 0000 		lds r25,keyboard_nkro
 370 0014 9923      		tst r25
 371 0016 01F0      		breq .L42
 372               	.LVL28:
 373               	.LBB138:
 374               	.LBB139:
 270:../../protocol/lufa/LUFA-120730/LUFA/Drivers/USB/Core/AVR8/../AVR8/Endpoint_AVR8.h **** 					UENUM = (Address & ENDPOINT_EPNUM_MASK);
 375               		.loc 2 270 0
 376 0018 8093 E900 		sts 233,r24
 377               	.LVL29:
 378 001c 8FEF      		ldi r24,lo8(-1)
 379 001e 00C0      		rjmp .L43
 380               	.L45:
 381               	.LVL30:
 382               	.LBE139:
 383               	.LBE138:
 384               	.LBB140:
 385               	.LBB141:
 386               		.loc 3 246 0
 387 0020 95E1      		ldi r25,lo8(21)
 388 0022 9A95      		1: dec r25
 389 0024 01F4      		brne 1b
 390 0026 0000      		nop
 391               	.LBE141:
 392               	.LBE140:
 370:../../protocol/lufa/lufa.c ****         while (timeout-- && !Endpoint_IsReadWriteAllowed()) _delay_us(4);
 393               		.loc 1 370 0
 394 0028 8823      		tst r24
 395 002a 01F0      		breq .L44
 396               	.LVL31:
 397               	.L43:
 398               	.LBB142:
 399               	.LBB143:
 360:../../protocol/lufa/LUFA-120730/LUFA/Drivers/USB/Core/AVR8/../AVR8/Endpoint_AVR8.h **** 				return ((UEINTX & (1 << RWAL)) ? true : false);
 400               		.loc 2 360 0
 401 002c 9091 E800 		lds r25,232
 402 0030 8150      		subi r24,lo8(-(-1))
 403               	.LBE143:
 404               	.LBE142:
 370:../../protocol/lufa/lufa.c ****         while (timeout-- && !Endpoint_IsReadWriteAllowed()) _delay_us(4);
 405               		.loc 1 370 0
 406 0032 95FF      		sbrs r25,5
 407 0034 00C0      		rjmp .L45
 408               	.L44:
 409               	.LBB144:
 410               	.LBB145:
 360:../../protocol/lufa/LUFA-120730/LUFA/Drivers/USB/Core/AVR8/../AVR8/Endpoint_AVR8.h **** 				return ((UEINTX & (1 << RWAL)) ? true : false);
 411               		.loc 2 360 0
 412 0036 8091 E800 		lds r24,232
 413               	.LBE145:
 414               	.LBE144:
 371:../../protocol/lufa/lufa.c ****         if (!Endpoint_IsReadWriteAllowed()) return;
 415               		.loc 1 371 0
 416 003a 85FF      		sbrs r24,5
 417 003c 00C0      		rjmp .L39
 374:../../protocol/lufa/lufa.c ****         Endpoint_Write_Stream_LE(report, NKRO_EPSIZE, NULL);
 418               		.loc 1 374 0
 419 003e 40E0      		ldi r20,0
 420 0040 50E0      		ldi r21,0
 421 0042 60E1      		ldi r22,lo8(16)
 422 0044 70E0      		ldi r23,0
 423 0046 00C0      		rjmp .L63
 424               	.LVL32:
 425               	.L42:
 426               	.LBB146:
 427               	.LBB147:
 270:../../protocol/lufa/LUFA-120730/LUFA/Drivers/USB/Core/AVR8/../AVR8/Endpoint_AVR8.h **** 					UENUM = (Address & ENDPOINT_EPNUM_MASK);
 428               		.loc 2 270 0
 429 0048 81E0      		ldi r24,lo8(1)
 430 004a 8093 E900 		sts 233,r24
 431               	.LVL33:
 432 004e 8FEF      		ldi r24,lo8(-1)
 433 0050 00C0      		rjmp .L48
 434               	.L50:
 435               	.LVL34:
 436               	.LBE147:
 437               	.LBE146:
 438               	.LBB148:
 439               	.LBB149:
 440               		.loc 3 246 0
 441 0052 95ED      		ldi r25,lo8(-43)
 442 0054 9A95      		1: dec r25
 443 0056 01F4      		brne 1b
 444 0058 0000      		nop
 445               	.LBE149:
 446               	.LBE148:
 383:../../protocol/lufa/lufa.c ****         while (timeout-- && !Endpoint_IsReadWriteAllowed()) _delay_us(40);
 447               		.loc 1 383 0
 448 005a 8823      		tst r24
 449 005c 01F0      		breq .L49
 450               	.LVL35:
 451               	.L48:
 452               	.LBB150:
 453               	.LBB151:
 360:../../protocol/lufa/LUFA-120730/LUFA/Drivers/USB/Core/AVR8/../AVR8/Endpoint_AVR8.h **** 				return ((UEINTX & (1 << RWAL)) ? true : false);
 454               		.loc 2 360 0
 455 005e 9091 E800 		lds r25,232
 456 0062 8150      		subi r24,lo8(-(-1))
 457               	.LBE151:
 458               	.LBE150:
 383:../../protocol/lufa/lufa.c ****         while (timeout-- && !Endpoint_IsReadWriteAllowed()) _delay_us(40);
 459               		.loc 1 383 0
 460 0064 95FF      		sbrs r25,5
 461 0066 00C0      		rjmp .L50
 462               	.L49:
 463               	.LBB152:
 464               	.LBB153:
 360:../../protocol/lufa/LUFA-120730/LUFA/Drivers/USB/Core/AVR8/../AVR8/Endpoint_AVR8.h **** 				return ((UEINTX & (1 << RWAL)) ? true : false);
 465               		.loc 2 360 0
 466 0068 8091 E800 		lds r24,232
 467               	.LBE153:
 468               	.LBE152:
 384:../../protocol/lufa/lufa.c ****         if (!Endpoint_IsReadWriteAllowed()) return;
 469               		.loc 1 384 0
 470 006c 85FF      		sbrs r24,5
 471 006e 00C0      		rjmp .L39
 387:../../protocol/lufa/lufa.c ****         Endpoint_Write_Stream_LE(report, KEYBOARD_EPSIZE, NULL);
 472               		.loc 1 387 0
 473 0070 40E0      		ldi r20,0
 474 0072 50E0      		ldi r21,0
 475 0074 68E0      		ldi r22,lo8(8)
 476 0076 70E0      		ldi r23,0
 477               	.LVL36:
 478               	.L63:
 479 0078 CE01      		movw r24,r28
 480 007a 0E94 0000 		call Endpoint_Write_Stream_LE
 481               	.LVL37:
 482               	.LBB154:
 483               	.LBB155:
 484               		.loc 2 456 0
 485 007e 8091 E800 		lds r24,232
 486 0082 8E77      		andi r24,lo8(126)
 487 0084 8093 E800 		sts 232,r24
 488               	.LBE155:
 489               	.LBE154:
 393:../../protocol/lufa/lufa.c ****     keyboard_report_sent = *report;
 490               		.loc 1 393 0
 491 0088 80E1      		ldi r24,lo8(16)
 492 008a FE01      		movw r30,r28
 493 008c A0E0      		ldi r26,lo8(keyboard_report_sent)
 494 008e B0E0      		ldi r27,hi8(keyboard_report_sent)
 495               		0:
 496 0090 0190      		ld r0,Z+
 497 0092 0D92      		st X+,r0
 498 0094 8A95      		dec r24
 499 0096 01F4      		brne 0b
 500               	.L39:
 501               	/* epilogue start */
 394:../../protocol/lufa/lufa.c **** }
 502               		.loc 1 394 0
 503 0098 DF91      		pop r29
 504 009a CF91      		pop r28
 505               	.LVL38:
 506 009c 0895      		ret
 507               		.cfi_endproc
 508               	.LFE113:
 510               		.section	.text.EVENT_USB_Device_Connect,"ax",@progbits
 511               	.global	EVENT_USB_Device_Connect
 513               	EVENT_USB_Device_Connect:
 514               	.LFB104:
 150:../../protocol/lufa/lufa.c **** {
 515               		.loc 1 150 0
 516               		.cfi_startproc
 517               	/* prologue: function */
 518               	/* frame size = 0 */
 519               	/* stack size = 0 */
 520               	.L__stack_usage = 0
 521 0000 0895      		ret
 522               		.cfi_endproc
 523               	.LFE104:
 525               		.section	.text.EVENT_USB_Device_Disconnect,"ax",@progbits
 526               	.global	EVENT_USB_Device_Disconnect
 528               	EVENT_USB_Device_Disconnect:
 529               	.LFB105:
 154:../../protocol/lufa/lufa.c **** {
 530               		.loc 1 154 0
 531               		.cfi_startproc
 532               	/* prologue: function */
 533               	/* frame size = 0 */
 534               	/* stack size = 0 */
 535               	.L__stack_usage = 0
 536 0000 0895      		ret
 537               		.cfi_endproc
 538               	.LFE105:
 540               		.section	.text.EVENT_USB_Device_Reset,"ax",@progbits
 541               	.global	EVENT_USB_Device_Reset
 543               	EVENT_USB_Device_Reset:
 544               	.LFB106:
 158:../../protocol/lufa/lufa.c **** {
 545               		.loc 1 158 0
 546               		.cfi_startproc
 547               	/* prologue: function */
 548               	/* frame size = 0 */
 549               	/* stack size = 0 */
 550               	.L__stack_usage = 0
 551 0000 0895      		ret
 552               		.cfi_endproc
 553               	.LFE106:
 555               		.section	.text.EVENT_USB_Device_Suspend,"ax",@progbits
 556               	.global	EVENT_USB_Device_Suspend
 558               	EVENT_USB_Device_Suspend:
 559               	.LFB107:
 162:../../protocol/lufa/lufa.c **** {
 560               		.loc 1 162 0
 561               		.cfi_startproc
 562               	/* prologue: function */
 563               	/* frame size = 0 */
 564               	/* stack size = 0 */
 565               	.L__stack_usage = 0
 566 0000 0895      		ret
 567               		.cfi_endproc
 568               	.LFE107:
 570               		.section	.text.EVENT_USB_Device_WakeUp,"ax",@progbits
 571               	.global	EVENT_USB_Device_WakeUp
 573               	EVENT_USB_Device_WakeUp:
 574               	.LFB108:
 169:../../protocol/lufa/lufa.c **** {
 575               		.loc 1 169 0
 576               		.cfi_startproc
 577               	/* prologue: function */
 578               	/* frame size = 0 */
 579               	/* stack size = 0 */
 580               	.L__stack_usage = 0
 170:../../protocol/lufa/lufa.c ****     suspend_wakeup_init();
 581               		.loc 1 170 0
 582 0000 0C94 0000 		jmp suspend_wakeup_init
 583               	.LVL39:
 584               		.cfi_endproc
 585               	.LFE108:
 587               		.section	.text.EVENT_USB_Device_StartOfFrame,"ax",@progbits
 588               	.global	EVENT_USB_Device_StartOfFrame
 590               	EVENT_USB_Device_StartOfFrame:
 591               	.LFB109:
 180:../../protocol/lufa/lufa.c **** {
 592               		.loc 1 180 0
 593               		.cfi_startproc
 594               	/* prologue: function */
 595               	/* frame size = 0 */
 596               	/* stack size = 0 */
 597               	.L__stack_usage = 0
 598 0000 0895      		ret
 599               		.cfi_endproc
 600               	.LFE109:
 602               		.section	.text.EVENT_USB_Device_ConfigurationChanged,"ax",@progbits
 603               	.global	EVENT_USB_Device_ConfigurationChanged
 605               	EVENT_USB_Device_ConfigurationChanged:
 606               	.LFB110:
 188:../../protocol/lufa/lufa.c **** {
 607               		.loc 1 188 0
 608               		.cfi_startproc
 609               	/* prologue: function */
 610               	/* frame size = 0 */
 611               	/* stack size = 0 */
 612               	.L__stack_usage = 0
 613               	.LVL40:
 614               	.LBB156:
 615               	.LBB157:
 210:../../protocol/lufa/LUFA-120730/LUFA/Drivers/USB/Core/AVR8/../AVR8/Endpoint_AVR8.h **** 				return Endpoint_ConfigureEndpoint_Prv(Number,
 616               		.loc 2 210 0
 617 0000 42E0      		ldi r20,lo8(2)
 618 0002 61EC      		ldi r22,lo8(-63)
 619 0004 81E0      		ldi r24,lo8(1)
 620 0006 0E94 0000 		call Endpoint_ConfigureEndpoint_Prv
 621               	.LVL41:
 622               	.LBE157:
 623               	.LBE156:
 624               	.LBB158:
 625               	.LBB159:
 626 000a 42E0      		ldi r20,lo8(2)
 627 000c 61EC      		ldi r22,lo8(-63)
 628 000e 82E0      		ldi r24,lo8(2)
 629 0010 0E94 0000 		call Endpoint_ConfigureEndpoint_Prv
 630               	.LVL42:
 631               	.LBE159:
 632               	.LBE158:
 633               	.LBB160:
 634               	.LBB161:
 635 0014 42E0      		ldi r20,lo8(2)
 636 0016 61EC      		ldi r22,lo8(-63)
 637 0018 83E0      		ldi r24,lo8(3)
 638 001a 0E94 0000 		call Endpoint_ConfigureEndpoint_Prv
 639               	.LVL43:
 640               	.LBE161:
 641               	.LBE160:
 642               	.LBB162:
 643               	.LBB163:
 644 001e 42E1      		ldi r20,lo8(18)
 645 0020 61EC      		ldi r22,lo8(-63)
 646 0022 84E0      		ldi r24,lo8(4)
 647 0024 0C94 0000 		jmp Endpoint_ConfigureEndpoint_Prv
 648               	.LVL44:
 649               	.LBE163:
 650               	.LBE162:
 651               		.cfi_endproc
 652               	.LFE110:
 654               		.section	.text.EVENT_USB_Device_ControlRequest,"ax",@progbits
 655               	.global	EVENT_USB_Device_ControlRequest
 657               	EVENT_USB_Device_ControlRequest:
 658               	.LFB111:
 241:../../protocol/lufa/lufa.c **** {
 659               		.loc 1 241 0
 660               		.cfi_startproc
 661               	/* prologue: function */
 662               	/* frame size = 0 */
 663               	/* stack size = 0 */
 664               	.L__stack_usage = 0
 665               	.LVL45:
 246:../../protocol/lufa/lufa.c ****     switch (USB_ControlRequest.bRequest)
 666               		.loc 1 246 0
 667 0000 8091 0000 		lds r24,USB_ControlRequest+1
 668 0004 8330      		cpi r24,lo8(3)
 669 0006 01F4      		brne .+2
 670 0008 00C0      		rjmp .L75
 671 000a 00F4      		brsh .L79
 672 000c 8130      		cpi r24,lo8(1)
 673 000e 01F0      		breq .L73
 674 0010 8230      		cpi r24,lo8(2)
 675 0012 01F0      		breq .+2
 676 0014 00C0      		rjmp .L71
 677 0016 00C0      		rjmp .L74
 678               	.L79:
 679 0018 8A30      		cpi r24,lo8(10)
 680 001a 01F4      		brne .+2
 681 001c 00C0      		rjmp .L77
 682 001e 8B30      		cpi r24,lo8(11)
 683 0020 01F4      		brne .+2
 684 0022 00C0      		rjmp .L78
 685 0024 8930      		cpi r24,lo8(9)
 686 0026 01F0      		breq .+2
 687 0028 00C0      		rjmp .L71
 688 002a 00C0      		rjmp .L76
 689               	.L73:
 249:../../protocol/lufa/lufa.c ****             if (USB_ControlRequest.bmRequestType == (REQDIR_DEVICETOHOST | REQTYPE_CLASS | REQREC_I
 690               		.loc 1 249 0
 691 002c 8091 0000 		lds r24,USB_ControlRequest
 692 0030 813A      		cpi r24,lo8(-95)
 693 0032 01F0      		breq .+2
 694 0034 00C0      		rjmp .L71
 695               	.LBB164:
 696               	.LBB165:
 444:../../protocol/lufa/LUFA-120730/LUFA/Drivers/USB/Core/AVR8/../AVR8/Endpoint_AVR8.h **** 				UEINTX &= ~(1 << RXSTPI);
 697               		.loc 2 444 0
 698 0036 8091 E800 		lds r24,232
 699 003a 877F      		andi r24,lo8(-9)
 700 003c 8093 E800 		sts 232,r24
 701 0040 8091 0000 		lds r24,USB_ControlRequest+4
 702 0044 9091 0000 		lds r25,USB_ControlRequest+4+1
 703 0048 892B      		or r24,r25
 704 004a 01F0      		breq .L89
 705               	.LBE165:
 706               	.LBE164:
 254:../../protocol/lufa/lufa.c ****                 switch (USB_ControlRequest.wIndex) {
 707               		.loc 1 254 0
 708 004c 60E0      		ldi r22,0
 709 004e 80E0      		ldi r24,0
 710 0050 90E0      		ldi r25,0
 711 0052 00C0      		rjmp .L81
 712               	.L89:
 713 0054 60E1      		ldi r22,lo8(16)
 714 0056 80E0      		ldi r24,lo8(keyboard_report_sent)
 715 0058 90E0      		ldi r25,hi8(keyboard_report_sent)
 716               	.L81:
 717               	.LVL46:
 263:../../protocol/lufa/lufa.c ****                 Endpoint_Write_Control_Stream_LE(ReportData, ReportSize);
 718               		.loc 1 263 0
 719 005a 70E0      		ldi r23,0
 720 005c 0E94 0000 		call Endpoint_Write_Control_Stream_LE
 721               	.LVL47:
 722               	.LBB166:
 723               	.LBB167:
 457:../../protocol/lufa/LUFA-120730/LUFA/Drivers/USB/Core/AVR8/../AVR8/Endpoint_AVR8.h **** 				#else
 458:../../protocol/lufa/LUFA-120730/LUFA/Drivers/USB/Core/AVR8/../AVR8/Endpoint_AVR8.h **** 					UEINTX &= ~(1 << TXINI);
 459:../../protocol/lufa/LUFA-120730/LUFA/Drivers/USB/Core/AVR8/../AVR8/Endpoint_AVR8.h **** 				#endif
 460:../../protocol/lufa/LUFA-120730/LUFA/Drivers/USB/Core/AVR8/../AVR8/Endpoint_AVR8.h **** 			}
 461:../../protocol/lufa/LUFA-120730/LUFA/Drivers/USB/Core/AVR8/../AVR8/Endpoint_AVR8.h **** 
 462:../../protocol/lufa/LUFA-120730/LUFA/Drivers/USB/Core/AVR8/../AVR8/Endpoint_AVR8.h **** 			/** Acknowledges an OUT packet to the host on the currently selected endpoint, freeing up the en
 463:../../protocol/lufa/LUFA-120730/LUFA/Drivers/USB/Core/AVR8/../AVR8/Endpoint_AVR8.h **** 			 *  for the next packet and switching to the alternative endpoint bank if double banked.
 464:../../protocol/lufa/LUFA-120730/LUFA/Drivers/USB/Core/AVR8/../AVR8/Endpoint_AVR8.h **** 			 *
 465:../../protocol/lufa/LUFA-120730/LUFA/Drivers/USB/Core/AVR8/../AVR8/Endpoint_AVR8.h **** 			 *  \ingroup Group_EndpointPacketManagement_AVR8
 466:../../protocol/lufa/LUFA-120730/LUFA/Drivers/USB/Core/AVR8/../AVR8/Endpoint_AVR8.h **** 			 */
 467:../../protocol/lufa/LUFA-120730/LUFA/Drivers/USB/Core/AVR8/../AVR8/Endpoint_AVR8.h **** 			static inline void Endpoint_ClearOUT(void) ATTR_ALWAYS_INLINE;
 468:../../protocol/lufa/LUFA-120730/LUFA/Drivers/USB/Core/AVR8/../AVR8/Endpoint_AVR8.h **** 			static inline void Endpoint_ClearOUT(void)
 469:../../protocol/lufa/LUFA-120730/LUFA/Drivers/USB/Core/AVR8/../AVR8/Endpoint_AVR8.h **** 			{
 470:../../protocol/lufa/LUFA-120730/LUFA/Drivers/USB/Core/AVR8/../AVR8/Endpoint_AVR8.h **** 				#if !defined(CONTROL_ONLY_DEVICE)
 471:../../protocol/lufa/LUFA-120730/LUFA/Drivers/USB/Core/AVR8/../AVR8/Endpoint_AVR8.h **** 					UEINTX &= ~((1 << RXOUTI) | (1 << FIFOCON));
 724               		.loc 2 471 0
 725 0060 8091 E800 		lds r24,232
 726 0064 8B77      		andi r24,lo8(123)
 727 0066 8093 E800 		sts 232,r24
 728 006a 0895      		ret
 729               	.LVL48:
 730               	.L76:
 731               	.LBE167:
 732               	.LBE166:
 269:../../protocol/lufa/lufa.c ****             if (USB_ControlRequest.bmRequestType == (REQDIR_HOSTTODEVICE | REQTYPE_CLASS | REQREC_I
 733               		.loc 1 269 0
 734 006c 8091 0000 		lds r24,USB_ControlRequest
 735 0070 8132      		cpi r24,lo8(33)
 736 0072 01F0      		breq .+2
 737 0074 00C0      		rjmp .L71
 273:../../protocol/lufa/lufa.c ****                 switch (USB_ControlRequest.wIndex) {
 738               		.loc 1 273 0
 739 0076 8091 0000 		lds r24,USB_ControlRequest+4
 740 007a 9091 0000 		lds r25,USB_ControlRequest+4+1
 741 007e 0097      		sbiw r24,0
 742 0080 01F0      		breq .L83
 743 0082 0397      		sbiw r24,3
 744 0084 01F0      		breq .+2
 745 0086 00C0      		rjmp .L71
 746               	.L83:
 747               	.LBB168:
 748               	.LBB169:
 444:../../protocol/lufa/LUFA-120730/LUFA/Drivers/USB/Core/AVR8/../AVR8/Endpoint_AVR8.h **** 				UEINTX &= ~(1 << RXSTPI);
 749               		.loc 2 444 0
 750 0088 8091 E800 		lds r24,232
 751 008c 877F      		andi r24,lo8(-9)
 752 008e 8093 E800 		sts 232,r24
 753 0092 00C0      		rjmp .L84
 754               	.L85:
 755               	.LBE169:
 756               	.LBE168:
 281:../../protocol/lufa/lufa.c ****                         if (USB_DeviceState == DEVICE_STATE_Unattached)
 757               		.loc 1 281 0
 758 0094 8091 0000 		lds r24,USB_DeviceState
 759 0098 8823      		tst r24
 760 009a 01F4      		brne .+2
 761 009c 00C0      		rjmp .L71
 762               	.L84:
 763               	.LBB170:
 764               	.LBB171:
 419:../../protocol/lufa/LUFA-120730/LUFA/Drivers/USB/Core/AVR8/../AVR8/Endpoint_AVR8.h **** 				return ((UEINTX & (1 << RXOUTI)) ? true : false);
 765               		.loc 2 419 0 discriminator 1
 766 009e 8091 E800 		lds r24,232
 767               	.LBE171:
 768               	.LBE170:
 280:../../protocol/lufa/lufa.c ****                     while (!(Endpoint_IsOUTReceived())) {
 769               		.loc 1 280 0 discriminator 1
 770 00a2 82FF      		sbrs r24,2
 771 00a4 00C0      		rjmp .L85
 772               	.LBB172:
 773               	.LBB173:
 472:../../protocol/lufa/LUFA-120730/LUFA/Drivers/USB/Core/AVR8/../AVR8/Endpoint_AVR8.h **** 				#else
 473:../../protocol/lufa/LUFA-120730/LUFA/Drivers/USB/Core/AVR8/../AVR8/Endpoint_AVR8.h **** 					UEINTX &= ~(1 << RXOUTI);
 474:../../protocol/lufa/LUFA-120730/LUFA/Drivers/USB/Core/AVR8/../AVR8/Endpoint_AVR8.h **** 				#endif
 475:../../protocol/lufa/LUFA-120730/LUFA/Drivers/USB/Core/AVR8/../AVR8/Endpoint_AVR8.h **** 			}
 476:../../protocol/lufa/LUFA-120730/LUFA/Drivers/USB/Core/AVR8/../AVR8/Endpoint_AVR8.h **** 
 477:../../protocol/lufa/LUFA-120730/LUFA/Drivers/USB/Core/AVR8/../AVR8/Endpoint_AVR8.h **** 			/** Stalls the current endpoint, indicating to the host that a logical problem occurred with the
 478:../../protocol/lufa/LUFA-120730/LUFA/Drivers/USB/Core/AVR8/../AVR8/Endpoint_AVR8.h **** 			 *  indicated endpoint and that the current transfer sequence should be aborted. This provides a
 479:../../protocol/lufa/LUFA-120730/LUFA/Drivers/USB/Core/AVR8/../AVR8/Endpoint_AVR8.h **** 			 *  way for devices to indicate invalid commands to the host so that the current transfer can be
 480:../../protocol/lufa/LUFA-120730/LUFA/Drivers/USB/Core/AVR8/../AVR8/Endpoint_AVR8.h **** 			 *  aborted and the host can begin its own recovery sequence.
 481:../../protocol/lufa/LUFA-120730/LUFA/Drivers/USB/Core/AVR8/../AVR8/Endpoint_AVR8.h **** 			 *
 482:../../protocol/lufa/LUFA-120730/LUFA/Drivers/USB/Core/AVR8/../AVR8/Endpoint_AVR8.h **** 			 *  The currently selected endpoint remains stalled until either the \ref Endpoint_ClearStall() 
 483:../../protocol/lufa/LUFA-120730/LUFA/Drivers/USB/Core/AVR8/../AVR8/Endpoint_AVR8.h **** 			 *  is called, or the host issues a CLEAR FEATURE request to the device for the currently select
 484:../../protocol/lufa/LUFA-120730/LUFA/Drivers/USB/Core/AVR8/../AVR8/Endpoint_AVR8.h **** 			 *  endpoint.
 485:../../protocol/lufa/LUFA-120730/LUFA/Drivers/USB/Core/AVR8/../AVR8/Endpoint_AVR8.h **** 			 *
 486:../../protocol/lufa/LUFA-120730/LUFA/Drivers/USB/Core/AVR8/../AVR8/Endpoint_AVR8.h **** 			 *  \ingroup Group_EndpointPacketManagement_AVR8
 487:../../protocol/lufa/LUFA-120730/LUFA/Drivers/USB/Core/AVR8/../AVR8/Endpoint_AVR8.h **** 			 */
 488:../../protocol/lufa/LUFA-120730/LUFA/Drivers/USB/Core/AVR8/../AVR8/Endpoint_AVR8.h **** 			static inline void Endpoint_StallTransaction(void) ATTR_ALWAYS_INLINE;
 489:../../protocol/lufa/LUFA-120730/LUFA/Drivers/USB/Core/AVR8/../AVR8/Endpoint_AVR8.h **** 			static inline void Endpoint_StallTransaction(void)
 490:../../protocol/lufa/LUFA-120730/LUFA/Drivers/USB/Core/AVR8/../AVR8/Endpoint_AVR8.h **** 			{
 491:../../protocol/lufa/LUFA-120730/LUFA/Drivers/USB/Core/AVR8/../AVR8/Endpoint_AVR8.h **** 				UECONX |= (1 << STALLRQ);
 492:../../protocol/lufa/LUFA-120730/LUFA/Drivers/USB/Core/AVR8/../AVR8/Endpoint_AVR8.h **** 			}
 493:../../protocol/lufa/LUFA-120730/LUFA/Drivers/USB/Core/AVR8/../AVR8/Endpoint_AVR8.h **** 
 494:../../protocol/lufa/LUFA-120730/LUFA/Drivers/USB/Core/AVR8/../AVR8/Endpoint_AVR8.h **** 			/** Clears the STALL condition on the currently selected endpoint.
 495:../../protocol/lufa/LUFA-120730/LUFA/Drivers/USB/Core/AVR8/../AVR8/Endpoint_AVR8.h **** 			 *
 496:../../protocol/lufa/LUFA-120730/LUFA/Drivers/USB/Core/AVR8/../AVR8/Endpoint_AVR8.h **** 			 *  \ingroup Group_EndpointPacketManagement_AVR8
 497:../../protocol/lufa/LUFA-120730/LUFA/Drivers/USB/Core/AVR8/../AVR8/Endpoint_AVR8.h **** 			 */
 498:../../protocol/lufa/LUFA-120730/LUFA/Drivers/USB/Core/AVR8/../AVR8/Endpoint_AVR8.h **** 			static inline void Endpoint_ClearStall(void) ATTR_ALWAYS_INLINE;
 499:../../protocol/lufa/LUFA-120730/LUFA/Drivers/USB/Core/AVR8/../AVR8/Endpoint_AVR8.h **** 			static inline void Endpoint_ClearStall(void)
 500:../../protocol/lufa/LUFA-120730/LUFA/Drivers/USB/Core/AVR8/../AVR8/Endpoint_AVR8.h **** 			{
 501:../../protocol/lufa/LUFA-120730/LUFA/Drivers/USB/Core/AVR8/../AVR8/Endpoint_AVR8.h **** 				UECONX |= (1 << STALLRQC);
 502:../../protocol/lufa/LUFA-120730/LUFA/Drivers/USB/Core/AVR8/../AVR8/Endpoint_AVR8.h **** 			}
 503:../../protocol/lufa/LUFA-120730/LUFA/Drivers/USB/Core/AVR8/../AVR8/Endpoint_AVR8.h **** 
 504:../../protocol/lufa/LUFA-120730/LUFA/Drivers/USB/Core/AVR8/../AVR8/Endpoint_AVR8.h **** 			/** Determines if the currently selected endpoint is stalled, false otherwise.
 505:../../protocol/lufa/LUFA-120730/LUFA/Drivers/USB/Core/AVR8/../AVR8/Endpoint_AVR8.h **** 			 *
 506:../../protocol/lufa/LUFA-120730/LUFA/Drivers/USB/Core/AVR8/../AVR8/Endpoint_AVR8.h **** 			 *  \ingroup Group_EndpointPacketManagement_AVR8
 507:../../protocol/lufa/LUFA-120730/LUFA/Drivers/USB/Core/AVR8/../AVR8/Endpoint_AVR8.h **** 			 *
 508:../../protocol/lufa/LUFA-120730/LUFA/Drivers/USB/Core/AVR8/../AVR8/Endpoint_AVR8.h **** 			 *  \return Boolean \c true if the currently selected endpoint is stalled, \c false otherwise.
 509:../../protocol/lufa/LUFA-120730/LUFA/Drivers/USB/Core/AVR8/../AVR8/Endpoint_AVR8.h **** 			 */
 510:../../protocol/lufa/LUFA-120730/LUFA/Drivers/USB/Core/AVR8/../AVR8/Endpoint_AVR8.h **** 			static inline bool Endpoint_IsStalled(void) ATTR_WARN_UNUSED_RESULT ATTR_ALWAYS_INLINE;
 511:../../protocol/lufa/LUFA-120730/LUFA/Drivers/USB/Core/AVR8/../AVR8/Endpoint_AVR8.h **** 			static inline bool Endpoint_IsStalled(void)
 512:../../protocol/lufa/LUFA-120730/LUFA/Drivers/USB/Core/AVR8/../AVR8/Endpoint_AVR8.h **** 			{
 513:../../protocol/lufa/LUFA-120730/LUFA/Drivers/USB/Core/AVR8/../AVR8/Endpoint_AVR8.h **** 				return ((UECONX & (1 << STALLRQ)) ? true : false);
 514:../../protocol/lufa/LUFA-120730/LUFA/Drivers/USB/Core/AVR8/../AVR8/Endpoint_AVR8.h **** 			}
 515:../../protocol/lufa/LUFA-120730/LUFA/Drivers/USB/Core/AVR8/../AVR8/Endpoint_AVR8.h **** 
 516:../../protocol/lufa/LUFA-120730/LUFA/Drivers/USB/Core/AVR8/../AVR8/Endpoint_AVR8.h **** 			/** Resets the data toggle of the currently selected endpoint. */
 517:../../protocol/lufa/LUFA-120730/LUFA/Drivers/USB/Core/AVR8/../AVR8/Endpoint_AVR8.h **** 			static inline void Endpoint_ResetDataToggle(void) ATTR_ALWAYS_INLINE;
 518:../../protocol/lufa/LUFA-120730/LUFA/Drivers/USB/Core/AVR8/../AVR8/Endpoint_AVR8.h **** 			static inline void Endpoint_ResetDataToggle(void)
 519:../../protocol/lufa/LUFA-120730/LUFA/Drivers/USB/Core/AVR8/../AVR8/Endpoint_AVR8.h **** 			{
 520:../../protocol/lufa/LUFA-120730/LUFA/Drivers/USB/Core/AVR8/../AVR8/Endpoint_AVR8.h **** 				UECONX |= (1 << RSTDT);
 521:../../protocol/lufa/LUFA-120730/LUFA/Drivers/USB/Core/AVR8/../AVR8/Endpoint_AVR8.h **** 			}
 522:../../protocol/lufa/LUFA-120730/LUFA/Drivers/USB/Core/AVR8/../AVR8/Endpoint_AVR8.h **** 
 523:../../protocol/lufa/LUFA-120730/LUFA/Drivers/USB/Core/AVR8/../AVR8/Endpoint_AVR8.h **** 			/** Sets the direction of the currently selected endpoint.
 524:../../protocol/lufa/LUFA-120730/LUFA/Drivers/USB/Core/AVR8/../AVR8/Endpoint_AVR8.h **** 			 *
 525:../../protocol/lufa/LUFA-120730/LUFA/Drivers/USB/Core/AVR8/../AVR8/Endpoint_AVR8.h **** 			 *  \param[in] DirectionMask  New endpoint direction, as a \c ENDPOINT_DIR_* mask.
 526:../../protocol/lufa/LUFA-120730/LUFA/Drivers/USB/Core/AVR8/../AVR8/Endpoint_AVR8.h **** 			 */
 527:../../protocol/lufa/LUFA-120730/LUFA/Drivers/USB/Core/AVR8/../AVR8/Endpoint_AVR8.h **** 			static inline void Endpoint_SetEndpointDirection(const uint8_t DirectionMask) ATTR_ALWAYS_INLINE
 528:../../protocol/lufa/LUFA-120730/LUFA/Drivers/USB/Core/AVR8/../AVR8/Endpoint_AVR8.h **** 			static inline void Endpoint_SetEndpointDirection(const uint8_t DirectionMask)
 529:../../protocol/lufa/LUFA-120730/LUFA/Drivers/USB/Core/AVR8/../AVR8/Endpoint_AVR8.h **** 			{
 530:../../protocol/lufa/LUFA-120730/LUFA/Drivers/USB/Core/AVR8/../AVR8/Endpoint_AVR8.h **** 				UECFG0X = ((UECFG0X & ~(1 << EPDIR)) | (DirectionMask ? (1 << EPDIR) : 0));
 531:../../protocol/lufa/LUFA-120730/LUFA/Drivers/USB/Core/AVR8/../AVR8/Endpoint_AVR8.h **** 			}
 532:../../protocol/lufa/LUFA-120730/LUFA/Drivers/USB/Core/AVR8/../AVR8/Endpoint_AVR8.h **** 
 533:../../protocol/lufa/LUFA-120730/LUFA/Drivers/USB/Core/AVR8/../AVR8/Endpoint_AVR8.h **** 			/** Reads one byte from the currently selected endpoint's bank, for OUT direction endpoints.
 534:../../protocol/lufa/LUFA-120730/LUFA/Drivers/USB/Core/AVR8/../AVR8/Endpoint_AVR8.h **** 			 *
 535:../../protocol/lufa/LUFA-120730/LUFA/Drivers/USB/Core/AVR8/../AVR8/Endpoint_AVR8.h **** 			 *  \ingroup Group_EndpointPrimitiveRW_AVR8
 536:../../protocol/lufa/LUFA-120730/LUFA/Drivers/USB/Core/AVR8/../AVR8/Endpoint_AVR8.h **** 			 *
 537:../../protocol/lufa/LUFA-120730/LUFA/Drivers/USB/Core/AVR8/../AVR8/Endpoint_AVR8.h **** 			 *  \return Next byte in the currently selected endpoint's FIFO buffer.
 538:../../protocol/lufa/LUFA-120730/LUFA/Drivers/USB/Core/AVR8/../AVR8/Endpoint_AVR8.h **** 			 */
 539:../../protocol/lufa/LUFA-120730/LUFA/Drivers/USB/Core/AVR8/../AVR8/Endpoint_AVR8.h **** 			static inline uint8_t Endpoint_Read_8(void) ATTR_WARN_UNUSED_RESULT ATTR_ALWAYS_INLINE;
 540:../../protocol/lufa/LUFA-120730/LUFA/Drivers/USB/Core/AVR8/../AVR8/Endpoint_AVR8.h **** 			static inline uint8_t Endpoint_Read_8(void)
 541:../../protocol/lufa/LUFA-120730/LUFA/Drivers/USB/Core/AVR8/../AVR8/Endpoint_AVR8.h **** 			{
 542:../../protocol/lufa/LUFA-120730/LUFA/Drivers/USB/Core/AVR8/../AVR8/Endpoint_AVR8.h **** 				return UEDATX;
 774               		.loc 2 542 0
 775 00a6 8091 F100 		lds r24,241
 776               	.LBE173:
 777               	.LBE172:
 284:../../protocol/lufa/lufa.c ****                     keyboard_led_stats = Endpoint_Read_8();
 778               		.loc 1 284 0
 779 00aa 8093 0000 		sts keyboard_led_stats,r24
 780               	.LBB174:
 781               	.LBB175:
 471:../../protocol/lufa/LUFA-120730/LUFA/Drivers/USB/Core/AVR8/../AVR8/Endpoint_AVR8.h **** 					UEINTX &= ~((1 << RXOUTI) | (1 << FIFOCON));
 782               		.loc 2 471 0
 783 00ae 8091 E800 		lds r24,232
 784 00b2 8B77      		andi r24,lo8(123)
 785 00b4 00C0      		rjmp .L107
 786               	.L75:
 787               	.LBE175:
 788               	.LBE174:
 296:../../protocol/lufa/lufa.c ****             if (USB_ControlRequest.bmRequestType == (REQDIR_DEVICETOHOST | REQTYPE_CLASS | REQREC_I
 789               		.loc 1 296 0
 790 00b6 8091 0000 		lds r24,USB_ControlRequest
 791 00ba 813A      		cpi r24,lo8(-95)
 792 00bc 01F0      		breq .+2
 793 00be 00C0      		rjmp .L71
 298:../../protocol/lufa/lufa.c ****                 if (USB_ControlRequest.wIndex == KEYBOARD_INTERFACE) {
 794               		.loc 1 298 0
 795 00c0 8091 0000 		lds r24,USB_ControlRequest+4
 796 00c4 9091 0000 		lds r25,USB_ControlRequest+4+1
 797 00c8 892B      		or r24,r25
 798 00ca 01F0      		breq .+2
 799 00cc 00C0      		rjmp .L71
 800               	.LBB176:
 801               	.LBB177:
 444:../../protocol/lufa/LUFA-120730/LUFA/Drivers/USB/Core/AVR8/../AVR8/Endpoint_AVR8.h **** 				UEINTX &= ~(1 << RXSTPI);
 802               		.loc 2 444 0
 803 00ce 8091 E800 		lds r24,232
 804 00d2 877F      		andi r24,lo8(-9)
 805 00d4 8093 E800 		sts 232,r24
 806               	.L86:
 807               	.LBE177:
 808               	.LBE176:
 809               	.LBB178:
 810               	.LBB179:
 407:../../protocol/lufa/LUFA-120730/LUFA/Drivers/USB/Core/AVR8/../AVR8/Endpoint_AVR8.h **** 				return ((UEINTX & (1 << TXINI)) ? true : false);
 811               		.loc 2 407 0 discriminator 1
 812 00d8 8091 E800 		lds r24,232
 813               	.LBE179:
 814               	.LBE178:
 300:../../protocol/lufa/lufa.c ****                     while (!(Endpoint_IsINReady()));
 815               		.loc 1 300 0 discriminator 1
 816 00dc 80FF      		sbrs r24,0
 817 00de 00C0      		rjmp .L86
 301:../../protocol/lufa/lufa.c ****                     Endpoint_Write_8(keyboard_protocol);
 818               		.loc 1 301 0
 819 00e0 8091 0000 		lds r24,keyboard_protocol
 820               	.LVL49:
 821 00e4 00C0      		rjmp .L108
 822               	.LVL50:
 823               	.L78:
 309:../../protocol/lufa/lufa.c ****             if (USB_ControlRequest.bmRequestType == (REQDIR_HOSTTODEVICE | REQTYPE_CLASS | REQREC_I
 824               		.loc 1 309 0
 825 00e6 8091 0000 		lds r24,USB_ControlRequest
 826 00ea 8132      		cpi r24,lo8(33)
 827 00ec 01F0      		breq .+2
 828 00ee 00C0      		rjmp .L71
 311:../../protocol/lufa/lufa.c ****                 if (USB_ControlRequest.wIndex == KEYBOARD_INTERFACE) {
 829               		.loc 1 311 0
 830 00f0 8091 0000 		lds r24,USB_ControlRequest+4
 831 00f4 9091 0000 		lds r25,USB_ControlRequest+4+1
 832 00f8 892B      		or r24,r25
 833 00fa 01F4      		brne .L71
 834               	.LBB180:
 835               	.LBB181:
 444:../../protocol/lufa/LUFA-120730/LUFA/Drivers/USB/Core/AVR8/../AVR8/Endpoint_AVR8.h **** 				UEINTX &= ~(1 << RXSTPI);
 836               		.loc 2 444 0
 837 00fc 8091 E800 		lds r24,232
 838 0100 877F      		andi r24,lo8(-9)
 839 0102 8093 E800 		sts 232,r24
 840               	.LBE181:
 841               	.LBE180:
 313:../../protocol/lufa/lufa.c ****                     Endpoint_ClearStatusStage();
 842               		.loc 1 313 0
 843 0106 0E94 0000 		call Endpoint_ClearStatusStage
 844               	.LVL51:
 315:../../protocol/lufa/lufa.c ****                     keyboard_protocol = ((USB_ControlRequest.wValue & 0xFF) != 0x00);
 845               		.loc 1 315 0
 846 010a 9091 0000 		lds r25,USB_ControlRequest+2
 847 010e 81E0      		ldi r24,lo8(1)
 848 0110 9111      		cpse r25,__zero_reg__
 849 0112 00C0      		rjmp .L87
 850 0114 80E0      		ldi r24,0
 851               	.L87:
 852 0116 8093 0000 		sts keyboard_protocol,r24
 317:../../protocol/lufa/lufa.c ****                     keyboard_nkro = !!keyboard_protocol;
 853               		.loc 1 317 0
 854 011a 8093 0000 		sts keyboard_nkro,r24
 319:../../protocol/lufa/lufa.c ****                     clear_keyboard();
 855               		.loc 1 319 0
 856 011e 0C94 0000 		jmp clear_keyboard
 857               	.LVL52:
 858               	.L77:
 325:../../protocol/lufa/lufa.c ****             if (USB_ControlRequest.bmRequestType == (REQDIR_HOSTTODEVICE | REQTYPE_CLASS | REQREC_I
 859               		.loc 1 325 0
 860 0122 8091 0000 		lds r24,USB_ControlRequest
 861 0126 8132      		cpi r24,lo8(33)
 862 0128 01F4      		brne .L71
 863               	.LBB182:
 864               	.LBB183:
 444:../../protocol/lufa/LUFA-120730/LUFA/Drivers/USB/Core/AVR8/../AVR8/Endpoint_AVR8.h **** 				UEINTX &= ~(1 << RXSTPI);
 865               		.loc 2 444 0
 866 012a 8091 E800 		lds r24,232
 867 012e 877F      		andi r24,lo8(-9)
 868 0130 8093 E800 		sts 232,r24
 869               	.LBE183:
 870               	.LBE182:
 328:../../protocol/lufa/lufa.c ****                 Endpoint_ClearStatusStage();
 871               		.loc 1 328 0
 872 0134 0E94 0000 		call Endpoint_ClearStatusStage
 873               	.LVL53:
 330:../../protocol/lufa/lufa.c ****                 keyboard_idle = ((USB_ControlRequest.wValue & 0xFF00) >> 8);
 874               		.loc 1 330 0
 875 0138 8091 0000 		lds r24,USB_ControlRequest+3
 876 013c 8093 0000 		sts keyboard_idle,r24
 877 0140 0895      		ret
 878               	.L74:
 335:../../protocol/lufa/lufa.c ****             if (USB_ControlRequest.bmRequestType == (REQDIR_DEVICETOHOST | REQTYPE_CLASS | REQREC_I
 879               		.loc 1 335 0
 880 0142 8091 0000 		lds r24,USB_ControlRequest
 881 0146 813A      		cpi r24,lo8(-95)
 882 0148 01F4      		brne .L71
 883               	.LBB184:
 884               	.LBB185:
 444:../../protocol/lufa/LUFA-120730/LUFA/Drivers/USB/Core/AVR8/../AVR8/Endpoint_AVR8.h **** 				UEINTX &= ~(1 << RXSTPI);
 885               		.loc 2 444 0
 886 014a 8091 E800 		lds r24,232
 887 014e 877F      		andi r24,lo8(-9)
 888 0150 8093 E800 		sts 232,r24
 889               	.L88:
 890               	.LBE185:
 891               	.LBE184:
 892               	.LBB186:
 893               	.LBB187:
 407:../../protocol/lufa/LUFA-120730/LUFA/Drivers/USB/Core/AVR8/../AVR8/Endpoint_AVR8.h **** 				return ((UEINTX & (1 << TXINI)) ? true : false);
 894               		.loc 2 407 0 discriminator 1
 895 0154 8091 E800 		lds r24,232
 896               	.LBE187:
 897               	.LBE186:
 338:../../protocol/lufa/lufa.c ****                 while (!(Endpoint_IsINReady()));
 898               		.loc 1 338 0 discriminator 1
 899 0158 80FF      		sbrs r24,0
 900 015a 00C0      		rjmp .L88
 339:../../protocol/lufa/lufa.c ****                 Endpoint_Write_8(keyboard_idle);
 901               		.loc 1 339 0
 902 015c 8091 0000 		lds r24,keyboard_idle
 903               	.L108:
 904               	.LVL54:
 905               	.LBB188:
 906               	.LBB189:
 543:../../protocol/lufa/LUFA-120730/LUFA/Drivers/USB/Core/AVR8/../AVR8/Endpoint_AVR8.h **** 			}
 544:../../protocol/lufa/LUFA-120730/LUFA/Drivers/USB/Core/AVR8/../AVR8/Endpoint_AVR8.h **** 
 545:../../protocol/lufa/LUFA-120730/LUFA/Drivers/USB/Core/AVR8/../AVR8/Endpoint_AVR8.h **** 			/** Writes one byte to the currently selected endpoint's bank, for IN direction endpoints.
 546:../../protocol/lufa/LUFA-120730/LUFA/Drivers/USB/Core/AVR8/../AVR8/Endpoint_AVR8.h **** 			 *
 547:../../protocol/lufa/LUFA-120730/LUFA/Drivers/USB/Core/AVR8/../AVR8/Endpoint_AVR8.h **** 			 *  \ingroup Group_EndpointPrimitiveRW_AVR8
 548:../../protocol/lufa/LUFA-120730/LUFA/Drivers/USB/Core/AVR8/../AVR8/Endpoint_AVR8.h **** 			 *
 549:../../protocol/lufa/LUFA-120730/LUFA/Drivers/USB/Core/AVR8/../AVR8/Endpoint_AVR8.h **** 			 *  \param[in] Data  Data to write into the the currently selected endpoint's FIFO buffer.
 550:../../protocol/lufa/LUFA-120730/LUFA/Drivers/USB/Core/AVR8/../AVR8/Endpoint_AVR8.h **** 			 */
 551:../../protocol/lufa/LUFA-120730/LUFA/Drivers/USB/Core/AVR8/../AVR8/Endpoint_AVR8.h **** 			static inline void Endpoint_Write_8(const uint8_t Data) ATTR_ALWAYS_INLINE;
 552:../../protocol/lufa/LUFA-120730/LUFA/Drivers/USB/Core/AVR8/../AVR8/Endpoint_AVR8.h **** 			static inline void Endpoint_Write_8(const uint8_t Data)
 553:../../protocol/lufa/LUFA-120730/LUFA/Drivers/USB/Core/AVR8/../AVR8/Endpoint_AVR8.h **** 			{
 554:../../protocol/lufa/LUFA-120730/LUFA/Drivers/USB/Core/AVR8/../AVR8/Endpoint_AVR8.h **** 				UEDATX = Data;
 907               		.loc 2 554 0
 908 0160 8093 F100 		sts 241,r24
 909               	.LBE189:
 910               	.LBE188:
 911               	.LBB190:
 912               	.LBB191:
 456:../../protocol/lufa/LUFA-120730/LUFA/Drivers/USB/Core/AVR8/../AVR8/Endpoint_AVR8.h **** 					UEINTX &= ~((1 << TXINI) | (1 << FIFOCON));
 913               		.loc 2 456 0
 914 0164 8091 E800 		lds r24,232
 915               	.LVL55:
 916 0168 8E77      		andi r24,lo8(126)
 917               	.LVL56:
 918               	.L107:
 919 016a 8093 E800 		sts 232,r24
 920               	.LBE191:
 921               	.LBE190:
 341:../../protocol/lufa/lufa.c ****                 Endpoint_ClearStatusStage();
 922               		.loc 1 341 0
 923 016e 0C94 0000 		jmp Endpoint_ClearStatusStage
 924               	.LVL57:
 925               	.L71:
 926 0172 0895      		ret
 927               		.cfi_endproc
 928               	.LFE111:
 930               		.section	.text.sendchar,"ax",@progbits
 931               	.global	sendchar
 933               	sendchar:
 934               	.LFB117:
 460:../../protocol/lufa/lufa.c **** 
 461:../../protocol/lufa/lufa.c **** 
 462:../../protocol/lufa/lufa.c **** /*******************************************************************************
 463:../../protocol/lufa/lufa.c ****  * sendchar
 464:../../protocol/lufa/lufa.c ****  ******************************************************************************/
 465:../../protocol/lufa/lufa.c **** #ifdef CONSOLE_ENABLE
 466:../../protocol/lufa/lufa.c **** #define SEND_TIMEOUT 5
 467:../../protocol/lufa/lufa.c **** int8_t sendchar(uint8_t c)
 468:../../protocol/lufa/lufa.c **** {
 469:../../protocol/lufa/lufa.c ****     // Not wait once timeouted.
 470:../../protocol/lufa/lufa.c ****     // Because sendchar() is called so many times, waiting each call causes big lag.
 471:../../protocol/lufa/lufa.c ****     static bool timeouted = false;
 472:../../protocol/lufa/lufa.c **** 
 473:../../protocol/lufa/lufa.c ****     if (USB_DeviceState != DEVICE_STATE_Configured)
 474:../../protocol/lufa/lufa.c ****         return -1;
 475:../../protocol/lufa/lufa.c **** 
 476:../../protocol/lufa/lufa.c ****     uint8_t ep = Endpoint_GetCurrentEndpoint();
 477:../../protocol/lufa/lufa.c ****     Endpoint_SelectEndpoint(CONSOLE_IN_EPNUM);
 478:../../protocol/lufa/lufa.c ****     if (!Endpoint_IsEnabled() || !Endpoint_IsConfigured()) {
 479:../../protocol/lufa/lufa.c ****         Endpoint_SelectEndpoint(ep);
 480:../../protocol/lufa/lufa.c ****         return -1;
 481:../../protocol/lufa/lufa.c ****     }
 482:../../protocol/lufa/lufa.c **** 
 483:../../protocol/lufa/lufa.c ****     if (timeouted && !Endpoint_IsReadWriteAllowed()) {
 484:../../protocol/lufa/lufa.c ****         Endpoint_SelectEndpoint(ep);
 485:../../protocol/lufa/lufa.c ****         return - 1;
 486:../../protocol/lufa/lufa.c ****     }
 487:../../protocol/lufa/lufa.c **** 
 488:../../protocol/lufa/lufa.c ****     timeouted = false;
 489:../../protocol/lufa/lufa.c **** 
 490:../../protocol/lufa/lufa.c ****     uint8_t timeout = SEND_TIMEOUT;
 491:../../protocol/lufa/lufa.c ****     uint16_t prevFN = USB_Device_GetFrameNumber();
 492:../../protocol/lufa/lufa.c ****     while (!Endpoint_IsReadWriteAllowed()) {
 493:../../protocol/lufa/lufa.c ****         switch (USB_DeviceState) {
 494:../../protocol/lufa/lufa.c ****         case DEVICE_STATE_Unattached:
 495:../../protocol/lufa/lufa.c ****         case DEVICE_STATE_Suspended:
 496:../../protocol/lufa/lufa.c ****             return -1;
 497:../../protocol/lufa/lufa.c ****         }
 498:../../protocol/lufa/lufa.c ****         if (Endpoint_IsStalled()) {
 499:../../protocol/lufa/lufa.c ****             Endpoint_SelectEndpoint(ep);
 500:../../protocol/lufa/lufa.c ****             return -1;
 501:../../protocol/lufa/lufa.c ****         }
 502:../../protocol/lufa/lufa.c ****         if (prevFN != USB_Device_GetFrameNumber()) {
 503:../../protocol/lufa/lufa.c ****             if (!(timeout--)) {
 504:../../protocol/lufa/lufa.c ****                 timeouted = true;
 505:../../protocol/lufa/lufa.c ****                 Endpoint_SelectEndpoint(ep);
 506:../../protocol/lufa/lufa.c ****                 return -1;
 507:../../protocol/lufa/lufa.c ****             }
 508:../../protocol/lufa/lufa.c ****             prevFN = USB_Device_GetFrameNumber();
 509:../../protocol/lufa/lufa.c ****         }
 510:../../protocol/lufa/lufa.c ****     }
 511:../../protocol/lufa/lufa.c **** 
 512:../../protocol/lufa/lufa.c ****     Endpoint_Write_8(c);
 513:../../protocol/lufa/lufa.c **** 
 514:../../protocol/lufa/lufa.c ****     // send when bank is full
 515:../../protocol/lufa/lufa.c ****     if (!Endpoint_IsReadWriteAllowed())
 516:../../protocol/lufa/lufa.c ****         Endpoint_ClearIN();
 517:../../protocol/lufa/lufa.c **** 
 518:../../protocol/lufa/lufa.c ****     Endpoint_SelectEndpoint(ep);
 519:../../protocol/lufa/lufa.c ****     return 0;
 520:../../protocol/lufa/lufa.c **** }
 521:../../protocol/lufa/lufa.c **** #else
 522:../../protocol/lufa/lufa.c **** int8_t sendchar(uint8_t c)
 523:../../protocol/lufa/lufa.c **** {
 935               		.loc 1 523 0
 936               		.cfi_startproc
 937               	.LVL58:
 938               	/* prologue: function */
 939               	/* frame size = 0 */
 940               	/* stack size = 0 */
 941               	.L__stack_usage = 0
 524:../../protocol/lufa/lufa.c ****     return 0;
 525:../../protocol/lufa/lufa.c **** }
 942               		.loc 1 525 0
 943 0000 80E0      		ldi r24,0
 944               	.LVL59:
 945 0002 0895      		ret
 946               		.cfi_endproc
 947               	.LFE117:
 949               		.section	.text.startup.main,"ax",@progbits
 950               		.weak	main
 952               	main:
 953               	.LFB119:
 526:../../protocol/lufa/lufa.c **** #endif
 527:../../protocol/lufa/lufa.c **** 
 528:../../protocol/lufa/lufa.c **** 
 529:../../protocol/lufa/lufa.c **** /*******************************************************************************
 530:../../protocol/lufa/lufa.c ****  * main
 531:../../protocol/lufa/lufa.c ****  ******************************************************************************/
 532:../../protocol/lufa/lufa.c **** static void SetupHardware(void)
 533:../../protocol/lufa/lufa.c **** {
 534:../../protocol/lufa/lufa.c ****     /* Disable watchdog if enabled by bootloader/fuses */
 535:../../protocol/lufa/lufa.c ****     MCUSR &= ~(1 << WDRF);
 536:../../protocol/lufa/lufa.c ****     wdt_disable();
 537:../../protocol/lufa/lufa.c **** 
 538:../../protocol/lufa/lufa.c ****     /* Disable clock division */
 539:../../protocol/lufa/lufa.c ****     clock_prescale_set(clock_div_1);
 540:../../protocol/lufa/lufa.c **** 
 541:../../protocol/lufa/lufa.c ****     // Leonardo needs. Without this USB device is not recognized.
 542:../../protocol/lufa/lufa.c ****     USB_Disable();
 543:../../protocol/lufa/lufa.c **** 
 544:../../protocol/lufa/lufa.c ****     USB_Init();
 545:../../protocol/lufa/lufa.c **** 
 546:../../protocol/lufa/lufa.c ****     // for Console_Task
 547:../../protocol/lufa/lufa.c ****     USB_Device_EnableSOFEvents();
 548:../../protocol/lufa/lufa.c ****     print_set_sendchar(sendchar);
 549:../../protocol/lufa/lufa.c **** }
 550:../../protocol/lufa/lufa.c **** 
 551:../../protocol/lufa/lufa.c **** int main(void)  __attribute__ ((weak));
 552:../../protocol/lufa/lufa.c **** int main(void)
 553:../../protocol/lufa/lufa.c **** {
 954               		.loc 1 553 0
 955               		.cfi_startproc
 956               	/* prologue: function */
 957               	/* frame size = 0 */
 958               	/* stack size = 0 */
 959               	.L__stack_usage = 0
 960               	.LBB199:
 961               	.LBB200:
 535:../../protocol/lufa/lufa.c ****     MCUSR &= ~(1 << WDRF);
 962               		.loc 1 535 0
 963 0000 84B7      		in r24,0x34
 964 0002 877F      		andi r24,lo8(-9)
 965 0004 84BF      		out 0x34,r24
 536:../../protocol/lufa/lufa.c ****     wdt_disable();
 966               		.loc 1 536 0
 967 0006 88E1      		ldi r24,lo8(24)
 968               	/* #APP */
 969               	 ;  536 "../../protocol/lufa/lufa.c" 1
 970 0008 0FB6      		in __tmp_reg__, __SREG__
 971 000a F894      		cli
 972 000c 8093 6000 		sts 96, r24
 973 0010 1092 6000 		sts 96, __zero_reg__
 974 0014 0FBE      		out __SREG__,__tmp_reg__
 975               		
 976               	 ;  0 "" 2
 977               	.LVL60:
 978               	/* #NOAPP */
 979               	.LBB201:
 980               	.LBB202:
 981               		.file 4 "/usr/local/Cellar/avr-gcc/4.7.2/lib/gcc/avr/4.7.2/../../../../avr/include/avr/power.h"
   1:/usr/local/Cellar/avr-gcc/4.7.2/lib/gcc/avr/4.7.2/../../../../avr/include/avr/power.h **** /* Copyright (c) 2006, 2007, 2008  Eric B. Weddington
   2:/usr/local/Cellar/avr-gcc/4.7.2/lib/gcc/avr/4.7.2/../../../../avr/include/avr/power.h ****    All rights reserved.
   3:/usr/local/Cellar/avr-gcc/4.7.2/lib/gcc/avr/4.7.2/../../../../avr/include/avr/power.h **** 
   4:/usr/local/Cellar/avr-gcc/4.7.2/lib/gcc/avr/4.7.2/../../../../avr/include/avr/power.h ****    Redistribution and use in source and binary forms, with or without
   5:/usr/local/Cellar/avr-gcc/4.7.2/lib/gcc/avr/4.7.2/../../../../avr/include/avr/power.h ****    modification, are permitted provided that the following conditions are met:
   6:/usr/local/Cellar/avr-gcc/4.7.2/lib/gcc/avr/4.7.2/../../../../avr/include/avr/power.h **** 
   7:/usr/local/Cellar/avr-gcc/4.7.2/lib/gcc/avr/4.7.2/../../../../avr/include/avr/power.h ****    * Redistributions of source code must retain the above copyright
   8:/usr/local/Cellar/avr-gcc/4.7.2/lib/gcc/avr/4.7.2/../../../../avr/include/avr/power.h ****      notice, this list of conditions and the following disclaimer.
   9:/usr/local/Cellar/avr-gcc/4.7.2/lib/gcc/avr/4.7.2/../../../../avr/include/avr/power.h ****    * Redistributions in binary form must reproduce the above copyright
  10:/usr/local/Cellar/avr-gcc/4.7.2/lib/gcc/avr/4.7.2/../../../../avr/include/avr/power.h ****      notice, this list of conditions and the following disclaimer in
  11:/usr/local/Cellar/avr-gcc/4.7.2/lib/gcc/avr/4.7.2/../../../../avr/include/avr/power.h ****      the documentation and/or other materials provided with the
  12:/usr/local/Cellar/avr-gcc/4.7.2/lib/gcc/avr/4.7.2/../../../../avr/include/avr/power.h ****      distribution.
  13:/usr/local/Cellar/avr-gcc/4.7.2/lib/gcc/avr/4.7.2/../../../../avr/include/avr/power.h ****    * Neither the name of the copyright holders nor the names of
  14:/usr/local/Cellar/avr-gcc/4.7.2/lib/gcc/avr/4.7.2/../../../../avr/include/avr/power.h ****      contributors may be used to endorse or promote products derived
  15:/usr/local/Cellar/avr-gcc/4.7.2/lib/gcc/avr/4.7.2/../../../../avr/include/avr/power.h ****      from this software without specific prior written permission.
  16:/usr/local/Cellar/avr-gcc/4.7.2/lib/gcc/avr/4.7.2/../../../../avr/include/avr/power.h **** 
  17:/usr/local/Cellar/avr-gcc/4.7.2/lib/gcc/avr/4.7.2/../../../../avr/include/avr/power.h ****   THIS SOFTWARE IS PROVIDED BY THE COPYRIGHT HOLDERS AND CONTRIBUTORS "AS IS"
  18:/usr/local/Cellar/avr-gcc/4.7.2/lib/gcc/avr/4.7.2/../../../../avr/include/avr/power.h ****   AND ANY EXPRESS OR IMPLIED WARRANTIES, INCLUDING, BUT NOT LIMITED TO, THE
  19:/usr/local/Cellar/avr-gcc/4.7.2/lib/gcc/avr/4.7.2/../../../../avr/include/avr/power.h ****   IMPLIED WARRANTIES OF MERCHANTABILITY AND FITNESS FOR A PARTICULAR PURPOSE
  20:/usr/local/Cellar/avr-gcc/4.7.2/lib/gcc/avr/4.7.2/../../../../avr/include/avr/power.h ****   ARE DISCLAIMED. IN NO EVENT SHALL THE COPYRIGHT OWNER OR CONTRIBUTORS BE
  21:/usr/local/Cellar/avr-gcc/4.7.2/lib/gcc/avr/4.7.2/../../../../avr/include/avr/power.h ****   LIABLE FOR ANY DIRECT, INDIRECT, INCIDENTAL, SPECIAL, EXEMPLARY, OR
  22:/usr/local/Cellar/avr-gcc/4.7.2/lib/gcc/avr/4.7.2/../../../../avr/include/avr/power.h ****   CONSEQUENTIAL DAMAGES (INCLUDING, BUT NOT LIMITED TO, PROCUREMENT OF
  23:/usr/local/Cellar/avr-gcc/4.7.2/lib/gcc/avr/4.7.2/../../../../avr/include/avr/power.h ****   SUBSTITUTE GOODS OR SERVICES; LOSS OF USE, DATA, OR PROFITS; OR BUSINESS
  24:/usr/local/Cellar/avr-gcc/4.7.2/lib/gcc/avr/4.7.2/../../../../avr/include/avr/power.h ****   INTERRUPTION) HOWEVER CAUSED AND ON ANY THEORY OF LIABILITY, WHETHER IN
  25:/usr/local/Cellar/avr-gcc/4.7.2/lib/gcc/avr/4.7.2/../../../../avr/include/avr/power.h ****   CONTRACT, STRICT LIABILITY, OR TORT (INCLUDING NEGLIGENCE OR OTHERWISE)
  26:/usr/local/Cellar/avr-gcc/4.7.2/lib/gcc/avr/4.7.2/../../../../avr/include/avr/power.h ****   ARISING IN ANY WAY OUT OF THE USE OF THIS SOFTWARE, EVEN IF ADVISED OF THE
  27:/usr/local/Cellar/avr-gcc/4.7.2/lib/gcc/avr/4.7.2/../../../../avr/include/avr/power.h ****   POSSIBILITY OF SUCH DAMAGE. */
  28:/usr/local/Cellar/avr-gcc/4.7.2/lib/gcc/avr/4.7.2/../../../../avr/include/avr/power.h **** 
  29:/usr/local/Cellar/avr-gcc/4.7.2/lib/gcc/avr/4.7.2/../../../../avr/include/avr/power.h **** /* $Id: power.h 2254 2011-09-26 15:06:50Z arcanum $ */
  30:/usr/local/Cellar/avr-gcc/4.7.2/lib/gcc/avr/4.7.2/../../../../avr/include/avr/power.h **** 
  31:/usr/local/Cellar/avr-gcc/4.7.2/lib/gcc/avr/4.7.2/../../../../avr/include/avr/power.h **** #ifndef _AVR_POWER_H_
  32:/usr/local/Cellar/avr-gcc/4.7.2/lib/gcc/avr/4.7.2/../../../../avr/include/avr/power.h **** #define _AVR_POWER_H_   1
  33:/usr/local/Cellar/avr-gcc/4.7.2/lib/gcc/avr/4.7.2/../../../../avr/include/avr/power.h **** 
  34:/usr/local/Cellar/avr-gcc/4.7.2/lib/gcc/avr/4.7.2/../../../../avr/include/avr/power.h **** #include <avr/io.h>
  35:/usr/local/Cellar/avr-gcc/4.7.2/lib/gcc/avr/4.7.2/../../../../avr/include/avr/power.h **** #include <stdint.h>
  36:/usr/local/Cellar/avr-gcc/4.7.2/lib/gcc/avr/4.7.2/../../../../avr/include/avr/power.h **** 
  37:/usr/local/Cellar/avr-gcc/4.7.2/lib/gcc/avr/4.7.2/../../../../avr/include/avr/power.h **** 
  38:/usr/local/Cellar/avr-gcc/4.7.2/lib/gcc/avr/4.7.2/../../../../avr/include/avr/power.h **** /** \file */
  39:/usr/local/Cellar/avr-gcc/4.7.2/lib/gcc/avr/4.7.2/../../../../avr/include/avr/power.h **** /** \defgroup avr_power <avr/power.h>: Power Reduction Management
  40:/usr/local/Cellar/avr-gcc/4.7.2/lib/gcc/avr/4.7.2/../../../../avr/include/avr/power.h **** 
  41:/usr/local/Cellar/avr-gcc/4.7.2/lib/gcc/avr/4.7.2/../../../../avr/include/avr/power.h **** \code #include <avr/power.h>\endcode
  42:/usr/local/Cellar/avr-gcc/4.7.2/lib/gcc/avr/4.7.2/../../../../avr/include/avr/power.h **** 
  43:/usr/local/Cellar/avr-gcc/4.7.2/lib/gcc/avr/4.7.2/../../../../avr/include/avr/power.h **** Many AVRs contain a Power Reduction Register (PRR) or Registers (PRRx) that 
  44:/usr/local/Cellar/avr-gcc/4.7.2/lib/gcc/avr/4.7.2/../../../../avr/include/avr/power.h **** allow you to reduce power consumption by disabling or enabling various on-board 
  45:/usr/local/Cellar/avr-gcc/4.7.2/lib/gcc/avr/4.7.2/../../../../avr/include/avr/power.h **** peripherals as needed.
  46:/usr/local/Cellar/avr-gcc/4.7.2/lib/gcc/avr/4.7.2/../../../../avr/include/avr/power.h **** 
  47:/usr/local/Cellar/avr-gcc/4.7.2/lib/gcc/avr/4.7.2/../../../../avr/include/avr/power.h **** There are many macros in this header file that provide an easy interface
  48:/usr/local/Cellar/avr-gcc/4.7.2/lib/gcc/avr/4.7.2/../../../../avr/include/avr/power.h **** to enable or disable on-board peripherals to reduce power. See the table below.
  49:/usr/local/Cellar/avr-gcc/4.7.2/lib/gcc/avr/4.7.2/../../../../avr/include/avr/power.h **** 
  50:/usr/local/Cellar/avr-gcc/4.7.2/lib/gcc/avr/4.7.2/../../../../avr/include/avr/power.h **** \note Not all AVR devices have a Power Reduction Register (for example
  51:/usr/local/Cellar/avr-gcc/4.7.2/lib/gcc/avr/4.7.2/../../../../avr/include/avr/power.h **** the ATmega128). On those devices without a Power Reduction Register, these 
  52:/usr/local/Cellar/avr-gcc/4.7.2/lib/gcc/avr/4.7.2/../../../../avr/include/avr/power.h **** macros are not available.
  53:/usr/local/Cellar/avr-gcc/4.7.2/lib/gcc/avr/4.7.2/../../../../avr/include/avr/power.h **** 
  54:/usr/local/Cellar/avr-gcc/4.7.2/lib/gcc/avr/4.7.2/../../../../avr/include/avr/power.h **** \note Not all AVR devices contain the same peripherals (for example, the LCD
  55:/usr/local/Cellar/avr-gcc/4.7.2/lib/gcc/avr/4.7.2/../../../../avr/include/avr/power.h **** interface), or they will be named differently (for example, USART and 
  56:/usr/local/Cellar/avr-gcc/4.7.2/lib/gcc/avr/4.7.2/../../../../avr/include/avr/power.h **** USART0). Please consult your device's datasheet, or the header file, to 
  57:/usr/local/Cellar/avr-gcc/4.7.2/lib/gcc/avr/4.7.2/../../../../avr/include/avr/power.h **** find out which macros are applicable to your device.
  58:/usr/local/Cellar/avr-gcc/4.7.2/lib/gcc/avr/4.7.2/../../../../avr/include/avr/power.h **** 
  59:/usr/local/Cellar/avr-gcc/4.7.2/lib/gcc/avr/4.7.2/../../../../avr/include/avr/power.h **** */
  60:/usr/local/Cellar/avr-gcc/4.7.2/lib/gcc/avr/4.7.2/../../../../avr/include/avr/power.h **** 
  61:/usr/local/Cellar/avr-gcc/4.7.2/lib/gcc/avr/4.7.2/../../../../avr/include/avr/power.h **** 
  62:/usr/local/Cellar/avr-gcc/4.7.2/lib/gcc/avr/4.7.2/../../../../avr/include/avr/power.h **** /** \addtogroup avr_power
  63:/usr/local/Cellar/avr-gcc/4.7.2/lib/gcc/avr/4.7.2/../../../../avr/include/avr/power.h **** 
  64:/usr/local/Cellar/avr-gcc/4.7.2/lib/gcc/avr/4.7.2/../../../../avr/include/avr/power.h **** \anchor avr_powermacros
  65:/usr/local/Cellar/avr-gcc/4.7.2/lib/gcc/avr/4.7.2/../../../../avr/include/avr/power.h **** <small>
  66:/usr/local/Cellar/avr-gcc/4.7.2/lib/gcc/avr/4.7.2/../../../../avr/include/avr/power.h **** <center>
  67:/usr/local/Cellar/avr-gcc/4.7.2/lib/gcc/avr/4.7.2/../../../../avr/include/avr/power.h **** <table border="3">
  68:/usr/local/Cellar/avr-gcc/4.7.2/lib/gcc/avr/4.7.2/../../../../avr/include/avr/power.h ****   <tr>
  69:/usr/local/Cellar/avr-gcc/4.7.2/lib/gcc/avr/4.7.2/../../../../avr/include/avr/power.h ****     <td width="10%"><strong>Power Macro</strong></td>
  70:/usr/local/Cellar/avr-gcc/4.7.2/lib/gcc/avr/4.7.2/../../../../avr/include/avr/power.h ****     <td width="15%"><strong>Description</strong></td>
  71:/usr/local/Cellar/avr-gcc/4.7.2/lib/gcc/avr/4.7.2/../../../../avr/include/avr/power.h ****     <td width="75%"><strong>Applicable for device</strong></td>
  72:/usr/local/Cellar/avr-gcc/4.7.2/lib/gcc/avr/4.7.2/../../../../avr/include/avr/power.h ****   </tr>
  73:/usr/local/Cellar/avr-gcc/4.7.2/lib/gcc/avr/4.7.2/../../../../avr/include/avr/power.h **** 
  74:/usr/local/Cellar/avr-gcc/4.7.2/lib/gcc/avr/4.7.2/../../../../avr/include/avr/power.h ****   <tr>
  75:/usr/local/Cellar/avr-gcc/4.7.2/lib/gcc/avr/4.7.2/../../../../avr/include/avr/power.h ****     <td>power_adc_enable()</td>
  76:/usr/local/Cellar/avr-gcc/4.7.2/lib/gcc/avr/4.7.2/../../../../avr/include/avr/power.h ****     <td>Enable the Analog to Digital Converter module.</td>
  77:/usr/local/Cellar/avr-gcc/4.7.2/lib/gcc/avr/4.7.2/../../../../avr/include/avr/power.h ****     <td>ATmega640, ATmega1280, ATmega1281, ATmega128RFA1, ATmega2560, ATmega2561, AT90USB646, AT90U
  78:/usr/local/Cellar/avr-gcc/4.7.2/lib/gcc/avr/4.7.2/../../../../avr/include/avr/power.h ****   </tr>
  79:/usr/local/Cellar/avr-gcc/4.7.2/lib/gcc/avr/4.7.2/../../../../avr/include/avr/power.h **** 
  80:/usr/local/Cellar/avr-gcc/4.7.2/lib/gcc/avr/4.7.2/../../../../avr/include/avr/power.h ****   <tr>
  81:/usr/local/Cellar/avr-gcc/4.7.2/lib/gcc/avr/4.7.2/../../../../avr/include/avr/power.h ****     <td>power_adc_disable()</td>
  82:/usr/local/Cellar/avr-gcc/4.7.2/lib/gcc/avr/4.7.2/../../../../avr/include/avr/power.h ****     <td>Disable the Analog to Digital Converter module.</td>
  83:/usr/local/Cellar/avr-gcc/4.7.2/lib/gcc/avr/4.7.2/../../../../avr/include/avr/power.h ****     <td>ATmega640, ATmega1280, ATmega1281, ATmega128RFA1, ATmega2560, ATmega2561, AT90USB646, AT90U
  84:/usr/local/Cellar/avr-gcc/4.7.2/lib/gcc/avr/4.7.2/../../../../avr/include/avr/power.h ****   </tr>
  85:/usr/local/Cellar/avr-gcc/4.7.2/lib/gcc/avr/4.7.2/../../../../avr/include/avr/power.h **** 
  86:/usr/local/Cellar/avr-gcc/4.7.2/lib/gcc/avr/4.7.2/../../../../avr/include/avr/power.h ****   <tr>
  87:/usr/local/Cellar/avr-gcc/4.7.2/lib/gcc/avr/4.7.2/../../../../avr/include/avr/power.h ****     <td>power_lcd_enable()</td>
  88:/usr/local/Cellar/avr-gcc/4.7.2/lib/gcc/avr/4.7.2/../../../../avr/include/avr/power.h ****     <td>Enable the LCD module.</td>
  89:/usr/local/Cellar/avr-gcc/4.7.2/lib/gcc/avr/4.7.2/../../../../avr/include/avr/power.h ****     <td>ATmega169, ATmega169P, ATmega329, ATmega329A, ATmega3290, ATmega3290A, ATmega649, ATmega649
  90:/usr/local/Cellar/avr-gcc/4.7.2/lib/gcc/avr/4.7.2/../../../../avr/include/avr/power.h ****   </tr>
  91:/usr/local/Cellar/avr-gcc/4.7.2/lib/gcc/avr/4.7.2/../../../../avr/include/avr/power.h **** 
  92:/usr/local/Cellar/avr-gcc/4.7.2/lib/gcc/avr/4.7.2/../../../../avr/include/avr/power.h ****   <tr>
  93:/usr/local/Cellar/avr-gcc/4.7.2/lib/gcc/avr/4.7.2/../../../../avr/include/avr/power.h ****     <td>power_lcd_disable().</td>
  94:/usr/local/Cellar/avr-gcc/4.7.2/lib/gcc/avr/4.7.2/../../../../avr/include/avr/power.h ****     <td>Disable the LCD module.</td>
  95:/usr/local/Cellar/avr-gcc/4.7.2/lib/gcc/avr/4.7.2/../../../../avr/include/avr/power.h ****     <td>ATmega169, ATmega169P, ATmega329, ATmega329A, ATmega3290, ATmega3290A, ATmega649, ATmega649
  96:/usr/local/Cellar/avr-gcc/4.7.2/lib/gcc/avr/4.7.2/../../../../avr/include/avr/power.h ****   </tr>
  97:/usr/local/Cellar/avr-gcc/4.7.2/lib/gcc/avr/4.7.2/../../../../avr/include/avr/power.h **** 
  98:/usr/local/Cellar/avr-gcc/4.7.2/lib/gcc/avr/4.7.2/../../../../avr/include/avr/power.h ****   <tr>
  99:/usr/local/Cellar/avr-gcc/4.7.2/lib/gcc/avr/4.7.2/../../../../avr/include/avr/power.h ****     <td>power_pscr_enable()</td>
 100:/usr/local/Cellar/avr-gcc/4.7.2/lib/gcc/avr/4.7.2/../../../../avr/include/avr/power.h ****     <td>Enable the Reduced Power Stage Controller module.</td>
 101:/usr/local/Cellar/avr-gcc/4.7.2/lib/gcc/avr/4.7.2/../../../../avr/include/avr/power.h ****     <td>AT90PWM81</td>
 102:/usr/local/Cellar/avr-gcc/4.7.2/lib/gcc/avr/4.7.2/../../../../avr/include/avr/power.h ****   </tr>
 103:/usr/local/Cellar/avr-gcc/4.7.2/lib/gcc/avr/4.7.2/../../../../avr/include/avr/power.h **** 
 104:/usr/local/Cellar/avr-gcc/4.7.2/lib/gcc/avr/4.7.2/../../../../avr/include/avr/power.h ****   <tr>
 105:/usr/local/Cellar/avr-gcc/4.7.2/lib/gcc/avr/4.7.2/../../../../avr/include/avr/power.h ****     <td>power_pscr_disable()</td>
 106:/usr/local/Cellar/avr-gcc/4.7.2/lib/gcc/avr/4.7.2/../../../../avr/include/avr/power.h ****     <td>Disable the Reduced Power Stage Controller module.</td>
 107:/usr/local/Cellar/avr-gcc/4.7.2/lib/gcc/avr/4.7.2/../../../../avr/include/avr/power.h ****     <td>AT90PWM81</td>
 108:/usr/local/Cellar/avr-gcc/4.7.2/lib/gcc/avr/4.7.2/../../../../avr/include/avr/power.h ****   </tr>
 109:/usr/local/Cellar/avr-gcc/4.7.2/lib/gcc/avr/4.7.2/../../../../avr/include/avr/power.h **** 
 110:/usr/local/Cellar/avr-gcc/4.7.2/lib/gcc/avr/4.7.2/../../../../avr/include/avr/power.h ****   <tr>
 111:/usr/local/Cellar/avr-gcc/4.7.2/lib/gcc/avr/4.7.2/../../../../avr/include/avr/power.h ****     <td>power_psc0_enable()</td>
 112:/usr/local/Cellar/avr-gcc/4.7.2/lib/gcc/avr/4.7.2/../../../../avr/include/avr/power.h ****     <td>Enable the Power Stage Controller 0 module.</td>
 113:/usr/local/Cellar/avr-gcc/4.7.2/lib/gcc/avr/4.7.2/../../../../avr/include/avr/power.h ****     <td>AT90PWM1, AT90PWM2, AT90PWM2B, AT90PWM3, AT90PWM3B</td>
 114:/usr/local/Cellar/avr-gcc/4.7.2/lib/gcc/avr/4.7.2/../../../../avr/include/avr/power.h ****   </tr>
 115:/usr/local/Cellar/avr-gcc/4.7.2/lib/gcc/avr/4.7.2/../../../../avr/include/avr/power.h **** 
 116:/usr/local/Cellar/avr-gcc/4.7.2/lib/gcc/avr/4.7.2/../../../../avr/include/avr/power.h ****   <tr>
 117:/usr/local/Cellar/avr-gcc/4.7.2/lib/gcc/avr/4.7.2/../../../../avr/include/avr/power.h ****     <td>power_psc0_disable()</td>
 118:/usr/local/Cellar/avr-gcc/4.7.2/lib/gcc/avr/4.7.2/../../../../avr/include/avr/power.h ****     <td>Disable the Power Stage Controller 0 module.</td>
 119:/usr/local/Cellar/avr-gcc/4.7.2/lib/gcc/avr/4.7.2/../../../../avr/include/avr/power.h ****     <td>AT90PWM1, AT90PWM2, AT90PWM2B, AT90PWM3, AT90PWM3B</td>
 120:/usr/local/Cellar/avr-gcc/4.7.2/lib/gcc/avr/4.7.2/../../../../avr/include/avr/power.h ****   </tr>
 121:/usr/local/Cellar/avr-gcc/4.7.2/lib/gcc/avr/4.7.2/../../../../avr/include/avr/power.h **** 
 122:/usr/local/Cellar/avr-gcc/4.7.2/lib/gcc/avr/4.7.2/../../../../avr/include/avr/power.h ****   <tr>
 123:/usr/local/Cellar/avr-gcc/4.7.2/lib/gcc/avr/4.7.2/../../../../avr/include/avr/power.h ****     <td>power_psc1_enable()</td>
 124:/usr/local/Cellar/avr-gcc/4.7.2/lib/gcc/avr/4.7.2/../../../../avr/include/avr/power.h ****     <td>Enable the Power Stage Controller 1 module.</td>
 125:/usr/local/Cellar/avr-gcc/4.7.2/lib/gcc/avr/4.7.2/../../../../avr/include/avr/power.h ****     <td>AT90PWM1, AT90PWM2, AT90PWM2B, AT90PWM3, AT90PWM3B</td>
 126:/usr/local/Cellar/avr-gcc/4.7.2/lib/gcc/avr/4.7.2/../../../../avr/include/avr/power.h ****   </tr>
 127:/usr/local/Cellar/avr-gcc/4.7.2/lib/gcc/avr/4.7.2/../../../../avr/include/avr/power.h **** 
 128:/usr/local/Cellar/avr-gcc/4.7.2/lib/gcc/avr/4.7.2/../../../../avr/include/avr/power.h ****   <tr>
 129:/usr/local/Cellar/avr-gcc/4.7.2/lib/gcc/avr/4.7.2/../../../../avr/include/avr/power.h ****     <td>power_psc1_disable()</td>
 130:/usr/local/Cellar/avr-gcc/4.7.2/lib/gcc/avr/4.7.2/../../../../avr/include/avr/power.h ****     <td>Disable the Power Stage Controller 1 module.</td>
 131:/usr/local/Cellar/avr-gcc/4.7.2/lib/gcc/avr/4.7.2/../../../../avr/include/avr/power.h ****     <td>AT90PWM1, AT90PWM2, AT90PWM2B, AT90PWM3, AT90PWM3B</td>
 132:/usr/local/Cellar/avr-gcc/4.7.2/lib/gcc/avr/4.7.2/../../../../avr/include/avr/power.h ****   </tr>
 133:/usr/local/Cellar/avr-gcc/4.7.2/lib/gcc/avr/4.7.2/../../../../avr/include/avr/power.h **** 
 134:/usr/local/Cellar/avr-gcc/4.7.2/lib/gcc/avr/4.7.2/../../../../avr/include/avr/power.h ****   <tr>
 135:/usr/local/Cellar/avr-gcc/4.7.2/lib/gcc/avr/4.7.2/../../../../avr/include/avr/power.h ****     <td>power_psc2_enable()</td>
 136:/usr/local/Cellar/avr-gcc/4.7.2/lib/gcc/avr/4.7.2/../../../../avr/include/avr/power.h ****     <td>Enable the Power Stage Controller 2 module.</td>
 137:/usr/local/Cellar/avr-gcc/4.7.2/lib/gcc/avr/4.7.2/../../../../avr/include/avr/power.h ****     <td>AT90PWM1, AT90PWM2, AT90PWM2B, AT90PWM3, AT90PWM3B, AT90PWM81</td>
 138:/usr/local/Cellar/avr-gcc/4.7.2/lib/gcc/avr/4.7.2/../../../../avr/include/avr/power.h ****   </tr>
 139:/usr/local/Cellar/avr-gcc/4.7.2/lib/gcc/avr/4.7.2/../../../../avr/include/avr/power.h **** 
 140:/usr/local/Cellar/avr-gcc/4.7.2/lib/gcc/avr/4.7.2/../../../../avr/include/avr/power.h ****   <tr>
 141:/usr/local/Cellar/avr-gcc/4.7.2/lib/gcc/avr/4.7.2/../../../../avr/include/avr/power.h ****     <td>power_psc2_disable()</td>
 142:/usr/local/Cellar/avr-gcc/4.7.2/lib/gcc/avr/4.7.2/../../../../avr/include/avr/power.h ****     <td>Disable the Power Stage Controller 2 module.</td>
 143:/usr/local/Cellar/avr-gcc/4.7.2/lib/gcc/avr/4.7.2/../../../../avr/include/avr/power.h ****     <td>AT90PWM1, AT90PWM2, AT90PWM2B, AT90PWM3, AT90PWM3B, AT90PWM81</td>
 144:/usr/local/Cellar/avr-gcc/4.7.2/lib/gcc/avr/4.7.2/../../../../avr/include/avr/power.h ****   </tr>
 145:/usr/local/Cellar/avr-gcc/4.7.2/lib/gcc/avr/4.7.2/../../../../avr/include/avr/power.h **** 
 146:/usr/local/Cellar/avr-gcc/4.7.2/lib/gcc/avr/4.7.2/../../../../avr/include/avr/power.h ****   <tr>
 147:/usr/local/Cellar/avr-gcc/4.7.2/lib/gcc/avr/4.7.2/../../../../avr/include/avr/power.h ****     <td>power_spi_enable()</td>
 148:/usr/local/Cellar/avr-gcc/4.7.2/lib/gcc/avr/4.7.2/../../../../avr/include/avr/power.h ****     <td>Enable the Serial Peripheral Interface module.</td>
 149:/usr/local/Cellar/avr-gcc/4.7.2/lib/gcc/avr/4.7.2/../../../../avr/include/avr/power.h ****     <td>ATmega640, ATmega1280, ATmega1281, ATmega128RFA1, ATmega2560, ATmega2561, AT90USB646, AT90U
 150:/usr/local/Cellar/avr-gcc/4.7.2/lib/gcc/avr/4.7.2/../../../../avr/include/avr/power.h ****   </tr>
 151:/usr/local/Cellar/avr-gcc/4.7.2/lib/gcc/avr/4.7.2/../../../../avr/include/avr/power.h **** 
 152:/usr/local/Cellar/avr-gcc/4.7.2/lib/gcc/avr/4.7.2/../../../../avr/include/avr/power.h ****   <tr>
 153:/usr/local/Cellar/avr-gcc/4.7.2/lib/gcc/avr/4.7.2/../../../../avr/include/avr/power.h ****     <td>power_spi_disable()</td>
 154:/usr/local/Cellar/avr-gcc/4.7.2/lib/gcc/avr/4.7.2/../../../../avr/include/avr/power.h ****     <td>Disable the Serial Peripheral Interface module.</td>
 155:/usr/local/Cellar/avr-gcc/4.7.2/lib/gcc/avr/4.7.2/../../../../avr/include/avr/power.h ****     <td>ATmega640, ATmega1280, ATmega1281, ATmega128RFA1, ATmega2560, ATmega2561, AT90USB646, AT90U
 156:/usr/local/Cellar/avr-gcc/4.7.2/lib/gcc/avr/4.7.2/../../../../avr/include/avr/power.h ****   </tr>
 157:/usr/local/Cellar/avr-gcc/4.7.2/lib/gcc/avr/4.7.2/../../../../avr/include/avr/power.h **** 
 158:/usr/local/Cellar/avr-gcc/4.7.2/lib/gcc/avr/4.7.2/../../../../avr/include/avr/power.h ****   <tr>
 159:/usr/local/Cellar/avr-gcc/4.7.2/lib/gcc/avr/4.7.2/../../../../avr/include/avr/power.h ****     <td>power_timer0_enable()</td>
 160:/usr/local/Cellar/avr-gcc/4.7.2/lib/gcc/avr/4.7.2/../../../../avr/include/avr/power.h ****     <td>Enable the Timer 0 module.</td>
 161:/usr/local/Cellar/avr-gcc/4.7.2/lib/gcc/avr/4.7.2/../../../../avr/include/avr/power.h ****     <td>ATmega640, ATmega1280, ATmega1281, ATmega128RFA1, ATmega2560, ATmega2561, AT90USB646, AT90U
 162:/usr/local/Cellar/avr-gcc/4.7.2/lib/gcc/avr/4.7.2/../../../../avr/include/avr/power.h ****   </tr>
 163:/usr/local/Cellar/avr-gcc/4.7.2/lib/gcc/avr/4.7.2/../../../../avr/include/avr/power.h **** 
 164:/usr/local/Cellar/avr-gcc/4.7.2/lib/gcc/avr/4.7.2/../../../../avr/include/avr/power.h ****   <tr>
 165:/usr/local/Cellar/avr-gcc/4.7.2/lib/gcc/avr/4.7.2/../../../../avr/include/avr/power.h ****     <td>power_timer0_disable()</td>
 166:/usr/local/Cellar/avr-gcc/4.7.2/lib/gcc/avr/4.7.2/../../../../avr/include/avr/power.h ****     <td>Disable the Timer 0 module.</td>
 167:/usr/local/Cellar/avr-gcc/4.7.2/lib/gcc/avr/4.7.2/../../../../avr/include/avr/power.h ****     <td>ATmega640, ATmega1280, ATmega1281, ATmega128RFA1, ATmega2560, ATmega2561, AT90USB646, AT90U
 168:/usr/local/Cellar/avr-gcc/4.7.2/lib/gcc/avr/4.7.2/../../../../avr/include/avr/power.h ****   </tr>
 169:/usr/local/Cellar/avr-gcc/4.7.2/lib/gcc/avr/4.7.2/../../../../avr/include/avr/power.h **** 
 170:/usr/local/Cellar/avr-gcc/4.7.2/lib/gcc/avr/4.7.2/../../../../avr/include/avr/power.h ****   <tr>
 171:/usr/local/Cellar/avr-gcc/4.7.2/lib/gcc/avr/4.7.2/../../../../avr/include/avr/power.h ****     <td>power_timer1_enable()</td>
 172:/usr/local/Cellar/avr-gcc/4.7.2/lib/gcc/avr/4.7.2/../../../../avr/include/avr/power.h ****     <td>Enable the Timer 1 module.</td>
 173:/usr/local/Cellar/avr-gcc/4.7.2/lib/gcc/avr/4.7.2/../../../../avr/include/avr/power.h ****     <td>ATmega640, ATmega1280, ATmega1281, ATmega128RFA1, ATmega2560, ATmega2561, AT90USB646, AT90U
 174:/usr/local/Cellar/avr-gcc/4.7.2/lib/gcc/avr/4.7.2/../../../../avr/include/avr/power.h ****   </tr>
 175:/usr/local/Cellar/avr-gcc/4.7.2/lib/gcc/avr/4.7.2/../../../../avr/include/avr/power.h **** 
 176:/usr/local/Cellar/avr-gcc/4.7.2/lib/gcc/avr/4.7.2/../../../../avr/include/avr/power.h ****   <tr>
 177:/usr/local/Cellar/avr-gcc/4.7.2/lib/gcc/avr/4.7.2/../../../../avr/include/avr/power.h ****     <td>power_timer1_disable()</td>
 178:/usr/local/Cellar/avr-gcc/4.7.2/lib/gcc/avr/4.7.2/../../../../avr/include/avr/power.h ****     <td>Disable the Timer 1 module.</td>
 179:/usr/local/Cellar/avr-gcc/4.7.2/lib/gcc/avr/4.7.2/../../../../avr/include/avr/power.h ****     <td>ATmega640, ATmega1280, ATmega1281, ATmega128RFA1, ATmega2560, ATmega2561, AT90USB646, AT90U
 180:/usr/local/Cellar/avr-gcc/4.7.2/lib/gcc/avr/4.7.2/../../../../avr/include/avr/power.h ****   </tr>
 181:/usr/local/Cellar/avr-gcc/4.7.2/lib/gcc/avr/4.7.2/../../../../avr/include/avr/power.h **** 
 182:/usr/local/Cellar/avr-gcc/4.7.2/lib/gcc/avr/4.7.2/../../../../avr/include/avr/power.h ****   <tr>
 183:/usr/local/Cellar/avr-gcc/4.7.2/lib/gcc/avr/4.7.2/../../../../avr/include/avr/power.h ****     <td>power_timer2_enable()</td>
 184:/usr/local/Cellar/avr-gcc/4.7.2/lib/gcc/avr/4.7.2/../../../../avr/include/avr/power.h ****     <td>Enable the Timer 2 module.</td>
 185:/usr/local/Cellar/avr-gcc/4.7.2/lib/gcc/avr/4.7.2/../../../../avr/include/avr/power.h ****     <td>ATmega640, ATmega1280, ATmega1281, ATmega128RFA1, ATmega2560, ATmega2561, AT90USB646, AT90U
 186:/usr/local/Cellar/avr-gcc/4.7.2/lib/gcc/avr/4.7.2/../../../../avr/include/avr/power.h ****   </tr>
 187:/usr/local/Cellar/avr-gcc/4.7.2/lib/gcc/avr/4.7.2/../../../../avr/include/avr/power.h **** 
 188:/usr/local/Cellar/avr-gcc/4.7.2/lib/gcc/avr/4.7.2/../../../../avr/include/avr/power.h ****   <tr>
 189:/usr/local/Cellar/avr-gcc/4.7.2/lib/gcc/avr/4.7.2/../../../../avr/include/avr/power.h ****     <td>power_timer2_disable()</td>
 190:/usr/local/Cellar/avr-gcc/4.7.2/lib/gcc/avr/4.7.2/../../../../avr/include/avr/power.h ****     <td>Disable the Timer 2 module.</td>
 191:/usr/local/Cellar/avr-gcc/4.7.2/lib/gcc/avr/4.7.2/../../../../avr/include/avr/power.h ****     <td>ATmega640, ATmega1280, ATmega1281, ATmega128RFA1, ATmega2560, ATmega2561, AT90USB646, AT90U
 192:/usr/local/Cellar/avr-gcc/4.7.2/lib/gcc/avr/4.7.2/../../../../avr/include/avr/power.h ****   </tr>
 193:/usr/local/Cellar/avr-gcc/4.7.2/lib/gcc/avr/4.7.2/../../../../avr/include/avr/power.h **** 
 194:/usr/local/Cellar/avr-gcc/4.7.2/lib/gcc/avr/4.7.2/../../../../avr/include/avr/power.h ****   <tr>
 195:/usr/local/Cellar/avr-gcc/4.7.2/lib/gcc/avr/4.7.2/../../../../avr/include/avr/power.h ****     <td>power_timer3_enable()</td>
 196:/usr/local/Cellar/avr-gcc/4.7.2/lib/gcc/avr/4.7.2/../../../../avr/include/avr/power.h ****     <td>Enable the Timer 3 module.</td>
 197:/usr/local/Cellar/avr-gcc/4.7.2/lib/gcc/avr/4.7.2/../../../../avr/include/avr/power.h ****     <td>ATmega640, ATmega1280, ATmega1281, ATmega128RFA1, ATmega2560, ATmega2561, AT90USB646, AT90U
 198:/usr/local/Cellar/avr-gcc/4.7.2/lib/gcc/avr/4.7.2/../../../../avr/include/avr/power.h ****   </tr>
 199:/usr/local/Cellar/avr-gcc/4.7.2/lib/gcc/avr/4.7.2/../../../../avr/include/avr/power.h **** 
 200:/usr/local/Cellar/avr-gcc/4.7.2/lib/gcc/avr/4.7.2/../../../../avr/include/avr/power.h ****   <tr>
 201:/usr/local/Cellar/avr-gcc/4.7.2/lib/gcc/avr/4.7.2/../../../../avr/include/avr/power.h ****     <td>power_timer3_disable()</td>
 202:/usr/local/Cellar/avr-gcc/4.7.2/lib/gcc/avr/4.7.2/../../../../avr/include/avr/power.h ****     <td>Disable the Timer 3 module.</td>
 203:/usr/local/Cellar/avr-gcc/4.7.2/lib/gcc/avr/4.7.2/../../../../avr/include/avr/power.h ****     <td>ATmega640, ATmega1280, ATmega1281, ATmega128RFA1, ATmega2560, ATmega2561, AT90USB646, AT90U
 204:/usr/local/Cellar/avr-gcc/4.7.2/lib/gcc/avr/4.7.2/../../../../avr/include/avr/power.h ****   </tr>
 205:/usr/local/Cellar/avr-gcc/4.7.2/lib/gcc/avr/4.7.2/../../../../avr/include/avr/power.h **** 
 206:/usr/local/Cellar/avr-gcc/4.7.2/lib/gcc/avr/4.7.2/../../../../avr/include/avr/power.h ****   <tr>
 207:/usr/local/Cellar/avr-gcc/4.7.2/lib/gcc/avr/4.7.2/../../../../avr/include/avr/power.h ****     <td>power_timer4_enable()</td>
 208:/usr/local/Cellar/avr-gcc/4.7.2/lib/gcc/avr/4.7.2/../../../../avr/include/avr/power.h ****     <td>Enable the Timer 4 module.</td>
 209:/usr/local/Cellar/avr-gcc/4.7.2/lib/gcc/avr/4.7.2/../../../../avr/include/avr/power.h ****     <td>ATmega640, ATmega1280, ATmega1281, ATmega128RFA1, ATmega2560, ATmega2561</td>
 210:/usr/local/Cellar/avr-gcc/4.7.2/lib/gcc/avr/4.7.2/../../../../avr/include/avr/power.h ****   </tr>
 211:/usr/local/Cellar/avr-gcc/4.7.2/lib/gcc/avr/4.7.2/../../../../avr/include/avr/power.h **** 
 212:/usr/local/Cellar/avr-gcc/4.7.2/lib/gcc/avr/4.7.2/../../../../avr/include/avr/power.h ****   <tr>
 213:/usr/local/Cellar/avr-gcc/4.7.2/lib/gcc/avr/4.7.2/../../../../avr/include/avr/power.h ****     <td>power_timer4_disable()</td>
 214:/usr/local/Cellar/avr-gcc/4.7.2/lib/gcc/avr/4.7.2/../../../../avr/include/avr/power.h ****     <td>Disable the Timer 4 module.</td>
 215:/usr/local/Cellar/avr-gcc/4.7.2/lib/gcc/avr/4.7.2/../../../../avr/include/avr/power.h ****     <td>ATmega640, ATmega1280, ATmega1281, ATmega128RFA1, ATmega2560, ATmega2561</td>
 216:/usr/local/Cellar/avr-gcc/4.7.2/lib/gcc/avr/4.7.2/../../../../avr/include/avr/power.h ****   </tr>
 217:/usr/local/Cellar/avr-gcc/4.7.2/lib/gcc/avr/4.7.2/../../../../avr/include/avr/power.h **** 
 218:/usr/local/Cellar/avr-gcc/4.7.2/lib/gcc/avr/4.7.2/../../../../avr/include/avr/power.h ****   <tr>
 219:/usr/local/Cellar/avr-gcc/4.7.2/lib/gcc/avr/4.7.2/../../../../avr/include/avr/power.h ****     <td>power_timer5_enable()</td>
 220:/usr/local/Cellar/avr-gcc/4.7.2/lib/gcc/avr/4.7.2/../../../../avr/include/avr/power.h ****     <td>Enable the Timer 5 module.</td>
 221:/usr/local/Cellar/avr-gcc/4.7.2/lib/gcc/avr/4.7.2/../../../../avr/include/avr/power.h ****     <td>ATmega640, ATmega1280, ATmega1281, ATmega128RFA1, ATmega2560, ATmega2561</td>
 222:/usr/local/Cellar/avr-gcc/4.7.2/lib/gcc/avr/4.7.2/../../../../avr/include/avr/power.h ****   </tr>
 223:/usr/local/Cellar/avr-gcc/4.7.2/lib/gcc/avr/4.7.2/../../../../avr/include/avr/power.h **** 
 224:/usr/local/Cellar/avr-gcc/4.7.2/lib/gcc/avr/4.7.2/../../../../avr/include/avr/power.h ****   <tr>
 225:/usr/local/Cellar/avr-gcc/4.7.2/lib/gcc/avr/4.7.2/../../../../avr/include/avr/power.h ****     <td>power_timer5_disable()</td>
 226:/usr/local/Cellar/avr-gcc/4.7.2/lib/gcc/avr/4.7.2/../../../../avr/include/avr/power.h ****     <td>Disable the Timer 5 module.</td>
 227:/usr/local/Cellar/avr-gcc/4.7.2/lib/gcc/avr/4.7.2/../../../../avr/include/avr/power.h ****     <td>ATmega640, ATmega1280, ATmega1281, ATmega128RFA1, ATmega2560, ATmega2561</td>
 228:/usr/local/Cellar/avr-gcc/4.7.2/lib/gcc/avr/4.7.2/../../../../avr/include/avr/power.h ****   </tr>
 229:/usr/local/Cellar/avr-gcc/4.7.2/lib/gcc/avr/4.7.2/../../../../avr/include/avr/power.h **** 
 230:/usr/local/Cellar/avr-gcc/4.7.2/lib/gcc/avr/4.7.2/../../../../avr/include/avr/power.h ****   <tr>
 231:/usr/local/Cellar/avr-gcc/4.7.2/lib/gcc/avr/4.7.2/../../../../avr/include/avr/power.h ****     <td>power_twi_enable()</td>
 232:/usr/local/Cellar/avr-gcc/4.7.2/lib/gcc/avr/4.7.2/../../../../avr/include/avr/power.h ****     <td>Enable the Two Wire Interface module.</td>
 233:/usr/local/Cellar/avr-gcc/4.7.2/lib/gcc/avr/4.7.2/../../../../avr/include/avr/power.h ****     <td>ATmega640, ATmega1280, ATmega1281, ATmega128RFA1, ATmega2560, ATmega2561, AT90USB646, AT90U
 234:/usr/local/Cellar/avr-gcc/4.7.2/lib/gcc/avr/4.7.2/../../../../avr/include/avr/power.h ****   </tr>
 235:/usr/local/Cellar/avr-gcc/4.7.2/lib/gcc/avr/4.7.2/../../../../avr/include/avr/power.h **** 
 236:/usr/local/Cellar/avr-gcc/4.7.2/lib/gcc/avr/4.7.2/../../../../avr/include/avr/power.h ****   <tr>
 237:/usr/local/Cellar/avr-gcc/4.7.2/lib/gcc/avr/4.7.2/../../../../avr/include/avr/power.h ****     <td>power_twi_disable()</td>
 238:/usr/local/Cellar/avr-gcc/4.7.2/lib/gcc/avr/4.7.2/../../../../avr/include/avr/power.h ****     <td>Disable the Two Wire Interface module.</td>
 239:/usr/local/Cellar/avr-gcc/4.7.2/lib/gcc/avr/4.7.2/../../../../avr/include/avr/power.h ****     <td>ATmega640, ATmega1280, ATmega1281, ATmega128RFA1, ATmega2560, ATmega2561, AT90USB646, AT90U
 240:/usr/local/Cellar/avr-gcc/4.7.2/lib/gcc/avr/4.7.2/../../../../avr/include/avr/power.h ****   </tr>
 241:/usr/local/Cellar/avr-gcc/4.7.2/lib/gcc/avr/4.7.2/../../../../avr/include/avr/power.h **** 
 242:/usr/local/Cellar/avr-gcc/4.7.2/lib/gcc/avr/4.7.2/../../../../avr/include/avr/power.h ****   <tr>
 243:/usr/local/Cellar/avr-gcc/4.7.2/lib/gcc/avr/4.7.2/../../../../avr/include/avr/power.h ****     <td>power_usart_enable()</td>
 244:/usr/local/Cellar/avr-gcc/4.7.2/lib/gcc/avr/4.7.2/../../../../avr/include/avr/power.h ****     <td>Enable the USART module.</td>
 245:/usr/local/Cellar/avr-gcc/4.7.2/lib/gcc/avr/4.7.2/../../../../avr/include/avr/power.h ****     <td>AT90PWM2, AT90PWM2B, AT90PWM3, AT90PWM3B</td>
 246:/usr/local/Cellar/avr-gcc/4.7.2/lib/gcc/avr/4.7.2/../../../../avr/include/avr/power.h ****   </tr>
 247:/usr/local/Cellar/avr-gcc/4.7.2/lib/gcc/avr/4.7.2/../../../../avr/include/avr/power.h **** 
 248:/usr/local/Cellar/avr-gcc/4.7.2/lib/gcc/avr/4.7.2/../../../../avr/include/avr/power.h ****   <tr>
 249:/usr/local/Cellar/avr-gcc/4.7.2/lib/gcc/avr/4.7.2/../../../../avr/include/avr/power.h ****     <td>power_usart_disable()</td>
 250:/usr/local/Cellar/avr-gcc/4.7.2/lib/gcc/avr/4.7.2/../../../../avr/include/avr/power.h ****     <td>Disable the USART module.</td>
 251:/usr/local/Cellar/avr-gcc/4.7.2/lib/gcc/avr/4.7.2/../../../../avr/include/avr/power.h ****     <td>AT90PWM2, AT90PWM2B, AT90PWM3, AT90PWM3B</td>
 252:/usr/local/Cellar/avr-gcc/4.7.2/lib/gcc/avr/4.7.2/../../../../avr/include/avr/power.h ****   </tr>
 253:/usr/local/Cellar/avr-gcc/4.7.2/lib/gcc/avr/4.7.2/../../../../avr/include/avr/power.h **** 
 254:/usr/local/Cellar/avr-gcc/4.7.2/lib/gcc/avr/4.7.2/../../../../avr/include/avr/power.h ****   <tr>
 255:/usr/local/Cellar/avr-gcc/4.7.2/lib/gcc/avr/4.7.2/../../../../avr/include/avr/power.h ****     <td>power_usart0_enable()</td>
 256:/usr/local/Cellar/avr-gcc/4.7.2/lib/gcc/avr/4.7.2/../../../../avr/include/avr/power.h ****     <td>Enable the USART 0 module.</td>
 257:/usr/local/Cellar/avr-gcc/4.7.2/lib/gcc/avr/4.7.2/../../../../avr/include/avr/power.h ****     <td>ATmega640, ATmega1280, ATmega1281, ATmega128RFA1, ATmega2560, ATmega2561, ATmega165, ATmega
 258:/usr/local/Cellar/avr-gcc/4.7.2/lib/gcc/avr/4.7.2/../../../../avr/include/avr/power.h ****   </tr>
 259:/usr/local/Cellar/avr-gcc/4.7.2/lib/gcc/avr/4.7.2/../../../../avr/include/avr/power.h **** 
 260:/usr/local/Cellar/avr-gcc/4.7.2/lib/gcc/avr/4.7.2/../../../../avr/include/avr/power.h ****   <tr>
 261:/usr/local/Cellar/avr-gcc/4.7.2/lib/gcc/avr/4.7.2/../../../../avr/include/avr/power.h ****     <td>power_usart0_disable()</td>
 262:/usr/local/Cellar/avr-gcc/4.7.2/lib/gcc/avr/4.7.2/../../../../avr/include/avr/power.h ****     <td>Disable the USART 0 module.</td>
 263:/usr/local/Cellar/avr-gcc/4.7.2/lib/gcc/avr/4.7.2/../../../../avr/include/avr/power.h ****     <td>ATmega640, ATmega1280, ATmega1281, ATmega128RFA1, ATmega2560, ATmega2561, ATmega165, ATmega
 264:/usr/local/Cellar/avr-gcc/4.7.2/lib/gcc/avr/4.7.2/../../../../avr/include/avr/power.h ****   </tr>
 265:/usr/local/Cellar/avr-gcc/4.7.2/lib/gcc/avr/4.7.2/../../../../avr/include/avr/power.h **** 
 266:/usr/local/Cellar/avr-gcc/4.7.2/lib/gcc/avr/4.7.2/../../../../avr/include/avr/power.h ****   <tr>
 267:/usr/local/Cellar/avr-gcc/4.7.2/lib/gcc/avr/4.7.2/../../../../avr/include/avr/power.h ****     <td>power_usart1_enable()</td>
 268:/usr/local/Cellar/avr-gcc/4.7.2/lib/gcc/avr/4.7.2/../../../../avr/include/avr/power.h ****     <td>Enable the USART 1 module.</td>
 269:/usr/local/Cellar/avr-gcc/4.7.2/lib/gcc/avr/4.7.2/../../../../avr/include/avr/power.h ****     <td>ATmega640, ATmega1280, ATmega1281, ATmega128RFA1, ATmega2560, ATmega2561, AT90USB646, AT90U
 270:/usr/local/Cellar/avr-gcc/4.7.2/lib/gcc/avr/4.7.2/../../../../avr/include/avr/power.h ****   </tr>
 271:/usr/local/Cellar/avr-gcc/4.7.2/lib/gcc/avr/4.7.2/../../../../avr/include/avr/power.h **** 
 272:/usr/local/Cellar/avr-gcc/4.7.2/lib/gcc/avr/4.7.2/../../../../avr/include/avr/power.h ****   <tr>
 273:/usr/local/Cellar/avr-gcc/4.7.2/lib/gcc/avr/4.7.2/../../../../avr/include/avr/power.h ****     <td>power_usart1_disable()</td>
 274:/usr/local/Cellar/avr-gcc/4.7.2/lib/gcc/avr/4.7.2/../../../../avr/include/avr/power.h ****     <td>Disable the USART 1 module.</td>
 275:/usr/local/Cellar/avr-gcc/4.7.2/lib/gcc/avr/4.7.2/../../../../avr/include/avr/power.h ****     <td>ATmega640, ATmega1280, ATmega1281, ATmega128RFA1, ATmega2560, ATmega2561, AT90USB646, AT90U
 276:/usr/local/Cellar/avr-gcc/4.7.2/lib/gcc/avr/4.7.2/../../../../avr/include/avr/power.h ****   </tr>
 277:/usr/local/Cellar/avr-gcc/4.7.2/lib/gcc/avr/4.7.2/../../../../avr/include/avr/power.h **** 
 278:/usr/local/Cellar/avr-gcc/4.7.2/lib/gcc/avr/4.7.2/../../../../avr/include/avr/power.h ****   <tr>
 279:/usr/local/Cellar/avr-gcc/4.7.2/lib/gcc/avr/4.7.2/../../../../avr/include/avr/power.h ****     <td>power_usart2_enable()</td>
 280:/usr/local/Cellar/avr-gcc/4.7.2/lib/gcc/avr/4.7.2/../../../../avr/include/avr/power.h ****     <td>Enable the USART 2 module.</td>
 281:/usr/local/Cellar/avr-gcc/4.7.2/lib/gcc/avr/4.7.2/../../../../avr/include/avr/power.h ****     <td>ATmega640, ATmega1280, ATmega1281, ATmega2560, ATmega2561</td>
 282:/usr/local/Cellar/avr-gcc/4.7.2/lib/gcc/avr/4.7.2/../../../../avr/include/avr/power.h ****   </tr>
 283:/usr/local/Cellar/avr-gcc/4.7.2/lib/gcc/avr/4.7.2/../../../../avr/include/avr/power.h **** 
 284:/usr/local/Cellar/avr-gcc/4.7.2/lib/gcc/avr/4.7.2/../../../../avr/include/avr/power.h ****   <tr>
 285:/usr/local/Cellar/avr-gcc/4.7.2/lib/gcc/avr/4.7.2/../../../../avr/include/avr/power.h ****     <td>power_usart2_disable()</td>
 286:/usr/local/Cellar/avr-gcc/4.7.2/lib/gcc/avr/4.7.2/../../../../avr/include/avr/power.h ****     <td>Disable the USART 2 module.</td>
 287:/usr/local/Cellar/avr-gcc/4.7.2/lib/gcc/avr/4.7.2/../../../../avr/include/avr/power.h ****     <td>ATmega640, ATmega1280, ATmega1281, ATmega2560, ATmega2561</td>
 288:/usr/local/Cellar/avr-gcc/4.7.2/lib/gcc/avr/4.7.2/../../../../avr/include/avr/power.h ****   </tr>
 289:/usr/local/Cellar/avr-gcc/4.7.2/lib/gcc/avr/4.7.2/../../../../avr/include/avr/power.h **** 
 290:/usr/local/Cellar/avr-gcc/4.7.2/lib/gcc/avr/4.7.2/../../../../avr/include/avr/power.h ****   <tr>
 291:/usr/local/Cellar/avr-gcc/4.7.2/lib/gcc/avr/4.7.2/../../../../avr/include/avr/power.h ****     <td>power_usart3_enable()</td>
 292:/usr/local/Cellar/avr-gcc/4.7.2/lib/gcc/avr/4.7.2/../../../../avr/include/avr/power.h ****     <td>Enable the USART 3 module.</td>
 293:/usr/local/Cellar/avr-gcc/4.7.2/lib/gcc/avr/4.7.2/../../../../avr/include/avr/power.h ****     <td>ATmega640, ATmega1280, ATmega1281, ATmega2560, ATmega2561</td>
 294:/usr/local/Cellar/avr-gcc/4.7.2/lib/gcc/avr/4.7.2/../../../../avr/include/avr/power.h ****   </tr>
 295:/usr/local/Cellar/avr-gcc/4.7.2/lib/gcc/avr/4.7.2/../../../../avr/include/avr/power.h **** 
 296:/usr/local/Cellar/avr-gcc/4.7.2/lib/gcc/avr/4.7.2/../../../../avr/include/avr/power.h ****   <tr>
 297:/usr/local/Cellar/avr-gcc/4.7.2/lib/gcc/avr/4.7.2/../../../../avr/include/avr/power.h ****     <td>power_usart3_disable()</td>
 298:/usr/local/Cellar/avr-gcc/4.7.2/lib/gcc/avr/4.7.2/../../../../avr/include/avr/power.h ****     <td>Disable the USART 3 module.</td>
 299:/usr/local/Cellar/avr-gcc/4.7.2/lib/gcc/avr/4.7.2/../../../../avr/include/avr/power.h ****     <td>ATmega640, ATmega1280, ATmega1281, ATmega2560, ATmega2561</td>
 300:/usr/local/Cellar/avr-gcc/4.7.2/lib/gcc/avr/4.7.2/../../../../avr/include/avr/power.h ****   </tr>
 301:/usr/local/Cellar/avr-gcc/4.7.2/lib/gcc/avr/4.7.2/../../../../avr/include/avr/power.h **** 
 302:/usr/local/Cellar/avr-gcc/4.7.2/lib/gcc/avr/4.7.2/../../../../avr/include/avr/power.h ****   <tr>
 303:/usr/local/Cellar/avr-gcc/4.7.2/lib/gcc/avr/4.7.2/../../../../avr/include/avr/power.h ****     <td>power_usb_enable()</td>
 304:/usr/local/Cellar/avr-gcc/4.7.2/lib/gcc/avr/4.7.2/../../../../avr/include/avr/power.h ****     <td>Enable the USB module.</td>
 305:/usr/local/Cellar/avr-gcc/4.7.2/lib/gcc/avr/4.7.2/../../../../avr/include/avr/power.h ****     <td>AT90USB646, AT90USB647, AT90USB1286, AT90USB1287</td>
 306:/usr/local/Cellar/avr-gcc/4.7.2/lib/gcc/avr/4.7.2/../../../../avr/include/avr/power.h ****   </tr>
 307:/usr/local/Cellar/avr-gcc/4.7.2/lib/gcc/avr/4.7.2/../../../../avr/include/avr/power.h **** 
 308:/usr/local/Cellar/avr-gcc/4.7.2/lib/gcc/avr/4.7.2/../../../../avr/include/avr/power.h ****   <tr>
 309:/usr/local/Cellar/avr-gcc/4.7.2/lib/gcc/avr/4.7.2/../../../../avr/include/avr/power.h ****     <td>power_usb_disable()</td>
 310:/usr/local/Cellar/avr-gcc/4.7.2/lib/gcc/avr/4.7.2/../../../../avr/include/avr/power.h ****     <td>Disable the USB module.</td>
 311:/usr/local/Cellar/avr-gcc/4.7.2/lib/gcc/avr/4.7.2/../../../../avr/include/avr/power.h ****     <td>AT90USB646, AT90USB647, AT90USB1286, AT90USB1287</td>
 312:/usr/local/Cellar/avr-gcc/4.7.2/lib/gcc/avr/4.7.2/../../../../avr/include/avr/power.h ****   </tr>
 313:/usr/local/Cellar/avr-gcc/4.7.2/lib/gcc/avr/4.7.2/../../../../avr/include/avr/power.h **** 
 314:/usr/local/Cellar/avr-gcc/4.7.2/lib/gcc/avr/4.7.2/../../../../avr/include/avr/power.h ****   <tr>
 315:/usr/local/Cellar/avr-gcc/4.7.2/lib/gcc/avr/4.7.2/../../../../avr/include/avr/power.h ****     <td>power_usi_enable()</td>
 316:/usr/local/Cellar/avr-gcc/4.7.2/lib/gcc/avr/4.7.2/../../../../avr/include/avr/power.h ****     <td>Enable the Universal Serial Interface module.</td>
 317:/usr/local/Cellar/avr-gcc/4.7.2/lib/gcc/avr/4.7.2/../../../../avr/include/avr/power.h ****     <td>ATtiny24, ATtiny44, ATtiny84, ATtiny84A, ATtiny25, ATtiny45, ATtiny85, ATtiny261, ATtiny461
 318:/usr/local/Cellar/avr-gcc/4.7.2/lib/gcc/avr/4.7.2/../../../../avr/include/avr/power.h ****   </tr>
 319:/usr/local/Cellar/avr-gcc/4.7.2/lib/gcc/avr/4.7.2/../../../../avr/include/avr/power.h **** 
 320:/usr/local/Cellar/avr-gcc/4.7.2/lib/gcc/avr/4.7.2/../../../../avr/include/avr/power.h ****   <tr>
 321:/usr/local/Cellar/avr-gcc/4.7.2/lib/gcc/avr/4.7.2/../../../../avr/include/avr/power.h ****     <td>power_usi_disable()</td>
 322:/usr/local/Cellar/avr-gcc/4.7.2/lib/gcc/avr/4.7.2/../../../../avr/include/avr/power.h ****     <td>Disable the Universal Serial Interface module.</td>
 323:/usr/local/Cellar/avr-gcc/4.7.2/lib/gcc/avr/4.7.2/../../../../avr/include/avr/power.h ****     <td>ATtiny24, ATtiny44, ATtiny84, ATtiny84A, ATtiny25, ATtiny45, ATtiny85, ATtiny261, ATtiny461
 324:/usr/local/Cellar/avr-gcc/4.7.2/lib/gcc/avr/4.7.2/../../../../avr/include/avr/power.h ****   </tr>
 325:/usr/local/Cellar/avr-gcc/4.7.2/lib/gcc/avr/4.7.2/../../../../avr/include/avr/power.h **** 
 326:/usr/local/Cellar/avr-gcc/4.7.2/lib/gcc/avr/4.7.2/../../../../avr/include/avr/power.h ****   <tr>
 327:/usr/local/Cellar/avr-gcc/4.7.2/lib/gcc/avr/4.7.2/../../../../avr/include/avr/power.h ****     <td>power_vadc_enable()</td>
 328:/usr/local/Cellar/avr-gcc/4.7.2/lib/gcc/avr/4.7.2/../../../../avr/include/avr/power.h ****     <td>Enable the Voltage ADC module.</td>
 329:/usr/local/Cellar/avr-gcc/4.7.2/lib/gcc/avr/4.7.2/../../../../avr/include/avr/power.h ****     <td>ATmega406</td>
 330:/usr/local/Cellar/avr-gcc/4.7.2/lib/gcc/avr/4.7.2/../../../../avr/include/avr/power.h ****   </tr>
 331:/usr/local/Cellar/avr-gcc/4.7.2/lib/gcc/avr/4.7.2/../../../../avr/include/avr/power.h **** 
 332:/usr/local/Cellar/avr-gcc/4.7.2/lib/gcc/avr/4.7.2/../../../../avr/include/avr/power.h ****   <tr>
 333:/usr/local/Cellar/avr-gcc/4.7.2/lib/gcc/avr/4.7.2/../../../../avr/include/avr/power.h ****     <td>power_vadc_disable()</td>
 334:/usr/local/Cellar/avr-gcc/4.7.2/lib/gcc/avr/4.7.2/../../../../avr/include/avr/power.h ****     <td>Disable the Voltage ADC module.</td>
 335:/usr/local/Cellar/avr-gcc/4.7.2/lib/gcc/avr/4.7.2/../../../../avr/include/avr/power.h ****     <td>ATmega406</td>
 336:/usr/local/Cellar/avr-gcc/4.7.2/lib/gcc/avr/4.7.2/../../../../avr/include/avr/power.h ****   </tr>
 337:/usr/local/Cellar/avr-gcc/4.7.2/lib/gcc/avr/4.7.2/../../../../avr/include/avr/power.h **** 
 338:/usr/local/Cellar/avr-gcc/4.7.2/lib/gcc/avr/4.7.2/../../../../avr/include/avr/power.h ****   <tr>
 339:/usr/local/Cellar/avr-gcc/4.7.2/lib/gcc/avr/4.7.2/../../../../avr/include/avr/power.h ****     <td>power_all_enable()</td>
 340:/usr/local/Cellar/avr-gcc/4.7.2/lib/gcc/avr/4.7.2/../../../../avr/include/avr/power.h ****     <td>Enable all modules.</td>
 341:/usr/local/Cellar/avr-gcc/4.7.2/lib/gcc/avr/4.7.2/../../../../avr/include/avr/power.h ****     <td>ATxmega6A4, ATxmega32A4, ATxmega64A1, ATxmega64A1U, ATxmega64A3, ATxmegaA1, ATxmegaA1U, ATx
 342:/usr/local/Cellar/avr-gcc/4.7.2/lib/gcc/avr/4.7.2/../../../../avr/include/avr/power.h ****   </tr>
 343:/usr/local/Cellar/avr-gcc/4.7.2/lib/gcc/avr/4.7.2/../../../../avr/include/avr/power.h **** 
 344:/usr/local/Cellar/avr-gcc/4.7.2/lib/gcc/avr/4.7.2/../../../../avr/include/avr/power.h ****   <tr>
 345:/usr/local/Cellar/avr-gcc/4.7.2/lib/gcc/avr/4.7.2/../../../../avr/include/avr/power.h ****     <td>power_all_disable()</td>
 346:/usr/local/Cellar/avr-gcc/4.7.2/lib/gcc/avr/4.7.2/../../../../avr/include/avr/power.h ****     <td>Disable all modules.</td>
 347:/usr/local/Cellar/avr-gcc/4.7.2/lib/gcc/avr/4.7.2/../../../../avr/include/avr/power.h ****     <td>ATxmega6A4, ATxmega32A4, ATxmega64A1, ATxmega64A1U, ATxmega64A3, ATxmegaA1, ATxmegaA1U, ATx
 348:/usr/local/Cellar/avr-gcc/4.7.2/lib/gcc/avr/4.7.2/../../../../avr/include/avr/power.h ****   </tr>
 349:/usr/local/Cellar/avr-gcc/4.7.2/lib/gcc/avr/4.7.2/../../../../avr/include/avr/power.h **** </table>
 350:/usr/local/Cellar/avr-gcc/4.7.2/lib/gcc/avr/4.7.2/../../../../avr/include/avr/power.h **** </center>
 351:/usr/local/Cellar/avr-gcc/4.7.2/lib/gcc/avr/4.7.2/../../../../avr/include/avr/power.h **** </small>
 352:/usr/local/Cellar/avr-gcc/4.7.2/lib/gcc/avr/4.7.2/../../../../avr/include/avr/power.h **** 
 353:/usr/local/Cellar/avr-gcc/4.7.2/lib/gcc/avr/4.7.2/../../../../avr/include/avr/power.h **** @} */
 354:/usr/local/Cellar/avr-gcc/4.7.2/lib/gcc/avr/4.7.2/../../../../avr/include/avr/power.h **** 
 355:/usr/local/Cellar/avr-gcc/4.7.2/lib/gcc/avr/4.7.2/../../../../avr/include/avr/power.h **** // Xmega A series has AES, EBI and DMA bits
 356:/usr/local/Cellar/avr-gcc/4.7.2/lib/gcc/avr/4.7.2/../../../../avr/include/avr/power.h **** // Include any other device on need basis
 357:/usr/local/Cellar/avr-gcc/4.7.2/lib/gcc/avr/4.7.2/../../../../avr/include/avr/power.h **** #if defined(__AVR_ATxmega16A4__) \
 358:/usr/local/Cellar/avr-gcc/4.7.2/lib/gcc/avr/4.7.2/../../../../avr/include/avr/power.h **** || defined(__AVR_ATxmega32A4__) \
 359:/usr/local/Cellar/avr-gcc/4.7.2/lib/gcc/avr/4.7.2/../../../../avr/include/avr/power.h **** || defined(__AVR_ATxmega64A1__) \
 360:/usr/local/Cellar/avr-gcc/4.7.2/lib/gcc/avr/4.7.2/../../../../avr/include/avr/power.h **** || defined(__AVR_ATxmega64A1U__) \
 361:/usr/local/Cellar/avr-gcc/4.7.2/lib/gcc/avr/4.7.2/../../../../avr/include/avr/power.h **** || defined(__AVR_ATxmega64A3__) \
 362:/usr/local/Cellar/avr-gcc/4.7.2/lib/gcc/avr/4.7.2/../../../../avr/include/avr/power.h **** || defined(__AVR_ATxmega128A1__) \
 363:/usr/local/Cellar/avr-gcc/4.7.2/lib/gcc/avr/4.7.2/../../../../avr/include/avr/power.h **** || defined(__AVR_ATxmega128A1U__) \
 364:/usr/local/Cellar/avr-gcc/4.7.2/lib/gcc/avr/4.7.2/../../../../avr/include/avr/power.h **** || defined(__AVR_ATxmega128A3__) \
 365:/usr/local/Cellar/avr-gcc/4.7.2/lib/gcc/avr/4.7.2/../../../../avr/include/avr/power.h **** || defined(__AVR_ATxmega192A3__) \
 366:/usr/local/Cellar/avr-gcc/4.7.2/lib/gcc/avr/4.7.2/../../../../avr/include/avr/power.h **** || defined(__AVR_ATxmega256A3__) \
 367:/usr/local/Cellar/avr-gcc/4.7.2/lib/gcc/avr/4.7.2/../../../../avr/include/avr/power.h **** || defined(__AVR_ATxmega256A3B__)
 368:/usr/local/Cellar/avr-gcc/4.7.2/lib/gcc/avr/4.7.2/../../../../avr/include/avr/power.h **** 
 369:/usr/local/Cellar/avr-gcc/4.7.2/lib/gcc/avr/4.7.2/../../../../avr/include/avr/power.h **** #define power_aes_enable()  (PR_PRGEN &= (uint8_t)~(PR_AES_bm))
 370:/usr/local/Cellar/avr-gcc/4.7.2/lib/gcc/avr/4.7.2/../../../../avr/include/avr/power.h **** #define power_aes_disable() (PR_PRGEN |= (uint8_t)PR_AES_bm)
 371:/usr/local/Cellar/avr-gcc/4.7.2/lib/gcc/avr/4.7.2/../../../../avr/include/avr/power.h **** 
 372:/usr/local/Cellar/avr-gcc/4.7.2/lib/gcc/avr/4.7.2/../../../../avr/include/avr/power.h **** #define power_ebi_enable()  (PR_PRGEN &= (uint8_t)~(PR_EBI_bm))
 373:/usr/local/Cellar/avr-gcc/4.7.2/lib/gcc/avr/4.7.2/../../../../avr/include/avr/power.h **** #define power_ebi_disable() (PR_PRGEN |= (uint8_t)PR_EBI_bm)
 374:/usr/local/Cellar/avr-gcc/4.7.2/lib/gcc/avr/4.7.2/../../../../avr/include/avr/power.h **** 
 375:/usr/local/Cellar/avr-gcc/4.7.2/lib/gcc/avr/4.7.2/../../../../avr/include/avr/power.h **** #define power_dma_enable()    (PR_PRGEN &= (uint8_t)~(PR_DMA_bm))
 376:/usr/local/Cellar/avr-gcc/4.7.2/lib/gcc/avr/4.7.2/../../../../avr/include/avr/power.h **** #define power_dma_disable()   (PR_PRGEN |= (uint8_t)PR_DMA_bm)
 377:/usr/local/Cellar/avr-gcc/4.7.2/lib/gcc/avr/4.7.2/../../../../avr/include/avr/power.h **** 
 378:/usr/local/Cellar/avr-gcc/4.7.2/lib/gcc/avr/4.7.2/../../../../avr/include/avr/power.h **** #define power_daca_enable()     (PR_PRPA &= (uint8_t)~(PR_DAC_bm))
 379:/usr/local/Cellar/avr-gcc/4.7.2/lib/gcc/avr/4.7.2/../../../../avr/include/avr/power.h **** #define power_daca_disable()    (PR_PRPA |= (uint8_t)PR_DAC_bm)
 380:/usr/local/Cellar/avr-gcc/4.7.2/lib/gcc/avr/4.7.2/../../../../avr/include/avr/power.h **** #define power_dacb_enable()     (PR_PRPB &= (uint8_t)~(PR_DAC_bm))
 381:/usr/local/Cellar/avr-gcc/4.7.2/lib/gcc/avr/4.7.2/../../../../avr/include/avr/power.h **** #define power_dacb_disable()    (PR_PRPB |= (uint8_t)PR_DAC_bm)
 382:/usr/local/Cellar/avr-gcc/4.7.2/lib/gcc/avr/4.7.2/../../../../avr/include/avr/power.h **** 
 383:/usr/local/Cellar/avr-gcc/4.7.2/lib/gcc/avr/4.7.2/../../../../avr/include/avr/power.h **** #define power_usartc1_enable()  (PR_PRPC &= (uint8_t)~(PR_USART1_bm))
 384:/usr/local/Cellar/avr-gcc/4.7.2/lib/gcc/avr/4.7.2/../../../../avr/include/avr/power.h **** #define power_usartc1_disable() (PR_PRPC |= (uint8_t)PR_USART1_bm)
 385:/usr/local/Cellar/avr-gcc/4.7.2/lib/gcc/avr/4.7.2/../../../../avr/include/avr/power.h **** #define power_usartd1_enable()  (PR_PRPD &= (uint8_t)~(PR_USART1_bm))
 386:/usr/local/Cellar/avr-gcc/4.7.2/lib/gcc/avr/4.7.2/../../../../avr/include/avr/power.h **** #define power_usartd1_disable() (PR_PRPD |= (uint8_t)PR_USART1_bm)
 387:/usr/local/Cellar/avr-gcc/4.7.2/lib/gcc/avr/4.7.2/../../../../avr/include/avr/power.h **** #define power_usarte1_enable()  (PR_PRPE &= (uint8_t)~(PR_USART1_bm))
 388:/usr/local/Cellar/avr-gcc/4.7.2/lib/gcc/avr/4.7.2/../../../../avr/include/avr/power.h **** #define power_usarte1_disable() (PR_PRPE |= (uint8_t)PR_USART1_bm)
 389:/usr/local/Cellar/avr-gcc/4.7.2/lib/gcc/avr/4.7.2/../../../../avr/include/avr/power.h **** #define power_usartf1_enable()  (PR_PRPF &= (uint8_t)~(PR_USART1_bm))
 390:/usr/local/Cellar/avr-gcc/4.7.2/lib/gcc/avr/4.7.2/../../../../avr/include/avr/power.h **** #define power_usartf1_disable() (PR_PRPF |= (uint8_t)PR_USART1_bm)
 391:/usr/local/Cellar/avr-gcc/4.7.2/lib/gcc/avr/4.7.2/../../../../avr/include/avr/power.h **** 
 392:/usr/local/Cellar/avr-gcc/4.7.2/lib/gcc/avr/4.7.2/../../../../avr/include/avr/power.h **** #define power_all_enable() \
 393:/usr/local/Cellar/avr-gcc/4.7.2/lib/gcc/avr/4.7.2/../../../../avr/include/avr/power.h **** do { \
 394:/usr/local/Cellar/avr-gcc/4.7.2/lib/gcc/avr/4.7.2/../../../../avr/include/avr/power.h ****     PR_PRGEN &= (uint8_t)~(PR_AES_bm|PR_EBI_bm|PR_RTC_bm|PR_EVSYS_bm|PR_DMA_bm); \
 395:/usr/local/Cellar/avr-gcc/4.7.2/lib/gcc/avr/4.7.2/../../../../avr/include/avr/power.h ****     PR_PRPA &= (uint8_t)~(PR_DAC_bm|PR_ADC_bm|PR_AC_bm); \
 396:/usr/local/Cellar/avr-gcc/4.7.2/lib/gcc/avr/4.7.2/../../../../avr/include/avr/power.h ****     PR_PRPB &= (uint8_t)~(PR_DAC_bm|PR_ADC_bm|PR_AC_bm); \
 397:/usr/local/Cellar/avr-gcc/4.7.2/lib/gcc/avr/4.7.2/../../../../avr/include/avr/power.h ****     PR_PRPC &= (uint8_t)~(PR_TWI_bm|PR_USART1_bm|PR_USART0_bm|PR_SPI_bm|PR_HIRES_bm|PR_TC1_bm|PR_TC
 398:/usr/local/Cellar/avr-gcc/4.7.2/lib/gcc/avr/4.7.2/../../../../avr/include/avr/power.h ****     PR_PRPD &= (uint8_t)~(PR_TWI_bm|PR_USART1_bm|PR_USART0_bm|PR_SPI_bm|PR_HIRES_bm|PR_TC1_bm|PR_TC
 399:/usr/local/Cellar/avr-gcc/4.7.2/lib/gcc/avr/4.7.2/../../../../avr/include/avr/power.h ****     PR_PRPE &= (uint8_t)~(PR_TWI_bm|PR_USART1_bm|PR_USART0_bm|PR_SPI_bm|PR_HIRES_bm|PR_TC1_bm|PR_TC
 400:/usr/local/Cellar/avr-gcc/4.7.2/lib/gcc/avr/4.7.2/../../../../avr/include/avr/power.h ****     PR_PRPF &= (uint8_t)~(PR_TWI_bm|PR_USART1_bm|PR_USART0_bm|PR_SPI_bm|PR_HIRES_bm|PR_TC1_bm|PR_TC
 401:/usr/local/Cellar/avr-gcc/4.7.2/lib/gcc/avr/4.7.2/../../../../avr/include/avr/power.h **** } while(0)
 402:/usr/local/Cellar/avr-gcc/4.7.2/lib/gcc/avr/4.7.2/../../../../avr/include/avr/power.h **** 
 403:/usr/local/Cellar/avr-gcc/4.7.2/lib/gcc/avr/4.7.2/../../../../avr/include/avr/power.h **** 
 404:/usr/local/Cellar/avr-gcc/4.7.2/lib/gcc/avr/4.7.2/../../../../avr/include/avr/power.h **** #define power_all_disable() \
 405:/usr/local/Cellar/avr-gcc/4.7.2/lib/gcc/avr/4.7.2/../../../../avr/include/avr/power.h **** do { \
 406:/usr/local/Cellar/avr-gcc/4.7.2/lib/gcc/avr/4.7.2/../../../../avr/include/avr/power.h ****     PR_PRGEN|= (uint8_t)(PR_AES_bm|PR_EBI_bm|PR_RTC_bm|PR_EVSYS_bm|PR_DMA_bm); \
 407:/usr/local/Cellar/avr-gcc/4.7.2/lib/gcc/avr/4.7.2/../../../../avr/include/avr/power.h ****     PR_PRPA |= (uint8_t)(PR_DAC_bm|PR_ADC_bm|PR_AC_bm); \
 408:/usr/local/Cellar/avr-gcc/4.7.2/lib/gcc/avr/4.7.2/../../../../avr/include/avr/power.h ****     PR_PRPB |= (uint8_t)(PR_DAC_bm|PR_ADC_bm|PR_AC_bm); \
 409:/usr/local/Cellar/avr-gcc/4.7.2/lib/gcc/avr/4.7.2/../../../../avr/include/avr/power.h ****     PR_PRPC |= (uint8_t)(PR_TWI_bm|PR_USART1_bm|PR_USART0_bm|PR_SPI_bm|PR_HIRES_bm|PR_TC1_bm|PR_TC0
 410:/usr/local/Cellar/avr-gcc/4.7.2/lib/gcc/avr/4.7.2/../../../../avr/include/avr/power.h ****     PR_PRPD |= (uint8_t)(PR_TWI_bm|PR_USART1_bm|PR_USART0_bm|PR_SPI_bm|PR_HIRES_bm|PR_TC1_bm|PR_TC0
 411:/usr/local/Cellar/avr-gcc/4.7.2/lib/gcc/avr/4.7.2/../../../../avr/include/avr/power.h ****     PR_PRPE |= (uint8_t)(PR_TWI_bm|PR_USART1_bm|PR_USART0_bm|PR_SPI_bm|PR_HIRES_bm|PR_TC1_bm|PR_TC0
 412:/usr/local/Cellar/avr-gcc/4.7.2/lib/gcc/avr/4.7.2/../../../../avr/include/avr/power.h ****     PR_PRPF |= (uint8_t)(PR_TWI_bm|PR_USART1_bm|PR_USART0_bm|PR_SPI_bm|PR_HIRES_bm|PR_TC1_bm|PR_TC0
 413:/usr/local/Cellar/avr-gcc/4.7.2/lib/gcc/avr/4.7.2/../../../../avr/include/avr/power.h **** } while(0)
 414:/usr/local/Cellar/avr-gcc/4.7.2/lib/gcc/avr/4.7.2/../../../../avr/include/avr/power.h **** #endif
 415:/usr/local/Cellar/avr-gcc/4.7.2/lib/gcc/avr/4.7.2/../../../../avr/include/avr/power.h **** 
 416:/usr/local/Cellar/avr-gcc/4.7.2/lib/gcc/avr/4.7.2/../../../../avr/include/avr/power.h **** #if defined(__AVR_ATxmega16A4__) \
 417:/usr/local/Cellar/avr-gcc/4.7.2/lib/gcc/avr/4.7.2/../../../../avr/include/avr/power.h **** || defined(__AVR_ATxmega16D4__) \
 418:/usr/local/Cellar/avr-gcc/4.7.2/lib/gcc/avr/4.7.2/../../../../avr/include/avr/power.h **** || defined(__AVR_ATxmega32A4__) \
 419:/usr/local/Cellar/avr-gcc/4.7.2/lib/gcc/avr/4.7.2/../../../../avr/include/avr/power.h **** || defined(__AVR_ATxmega32D4__) \
 420:/usr/local/Cellar/avr-gcc/4.7.2/lib/gcc/avr/4.7.2/../../../../avr/include/avr/power.h **** || defined(__AVR_ATxmega64A1__) \
 421:/usr/local/Cellar/avr-gcc/4.7.2/lib/gcc/avr/4.7.2/../../../../avr/include/avr/power.h **** || defined(__AVR_ATxmega64A1U__) \
 422:/usr/local/Cellar/avr-gcc/4.7.2/lib/gcc/avr/4.7.2/../../../../avr/include/avr/power.h **** || defined(__AVR_ATxmega64A3__) \
 423:/usr/local/Cellar/avr-gcc/4.7.2/lib/gcc/avr/4.7.2/../../../../avr/include/avr/power.h **** || defined(__AVR_ATxmega64D3__) \
 424:/usr/local/Cellar/avr-gcc/4.7.2/lib/gcc/avr/4.7.2/../../../../avr/include/avr/power.h **** || defined(__AVR_ATxmega128A1__) \
 425:/usr/local/Cellar/avr-gcc/4.7.2/lib/gcc/avr/4.7.2/../../../../avr/include/avr/power.h **** || defined(__AVR_ATxmega128A1U__) \
 426:/usr/local/Cellar/avr-gcc/4.7.2/lib/gcc/avr/4.7.2/../../../../avr/include/avr/power.h **** || defined(__AVR_ATxmega128A3__) \
 427:/usr/local/Cellar/avr-gcc/4.7.2/lib/gcc/avr/4.7.2/../../../../avr/include/avr/power.h **** || defined(__AVR_ATxmega128D3__) \
 428:/usr/local/Cellar/avr-gcc/4.7.2/lib/gcc/avr/4.7.2/../../../../avr/include/avr/power.h **** || defined(__AVR_ATxmega192A3__) \
 429:/usr/local/Cellar/avr-gcc/4.7.2/lib/gcc/avr/4.7.2/../../../../avr/include/avr/power.h **** || defined(__AVR_ATxmega192D3__) \
 430:/usr/local/Cellar/avr-gcc/4.7.2/lib/gcc/avr/4.7.2/../../../../avr/include/avr/power.h **** || defined(__AVR_ATxmega256A3__) \
 431:/usr/local/Cellar/avr-gcc/4.7.2/lib/gcc/avr/4.7.2/../../../../avr/include/avr/power.h **** || defined(__AVR_ATxmega256A3B__)
 432:/usr/local/Cellar/avr-gcc/4.7.2/lib/gcc/avr/4.7.2/../../../../avr/include/avr/power.h **** 
 433:/usr/local/Cellar/avr-gcc/4.7.2/lib/gcc/avr/4.7.2/../../../../avr/include/avr/power.h **** 
 434:/usr/local/Cellar/avr-gcc/4.7.2/lib/gcc/avr/4.7.2/../../../../avr/include/avr/power.h **** #define power_rtc_enable()  (PR_PRGEN &= (uint8_t)~(PR_RTC_bm))
 435:/usr/local/Cellar/avr-gcc/4.7.2/lib/gcc/avr/4.7.2/../../../../avr/include/avr/power.h **** #define power_rtc_disable() (PR_PRGEN |= (uint8_t)PR_RTC_bm)
 436:/usr/local/Cellar/avr-gcc/4.7.2/lib/gcc/avr/4.7.2/../../../../avr/include/avr/power.h **** 
 437:/usr/local/Cellar/avr-gcc/4.7.2/lib/gcc/avr/4.7.2/../../../../avr/include/avr/power.h **** #define power_evsys_enable()    (PR_PRGEN &= (uint8_t)~(PR_EVSYS_bm))
 438:/usr/local/Cellar/avr-gcc/4.7.2/lib/gcc/avr/4.7.2/../../../../avr/include/avr/power.h **** #define power_evsys_disable()   (PR_PRGEN |= (uint8_t)PR_EVSYS_bm)
 439:/usr/local/Cellar/avr-gcc/4.7.2/lib/gcc/avr/4.7.2/../../../../avr/include/avr/power.h **** 
 440:/usr/local/Cellar/avr-gcc/4.7.2/lib/gcc/avr/4.7.2/../../../../avr/include/avr/power.h **** #define power_adca_enable()     (PR_PRPA &= (uint8_t)~(PR_ADC_bm))
 441:/usr/local/Cellar/avr-gcc/4.7.2/lib/gcc/avr/4.7.2/../../../../avr/include/avr/power.h **** #define power_adca_disable()    (PR_PRPA |= (uint8_t)PR_ADC_bm)
 442:/usr/local/Cellar/avr-gcc/4.7.2/lib/gcc/avr/4.7.2/../../../../avr/include/avr/power.h **** #define power_adcb_enable()     (PR_PRPB &= (uint8_t)~(PR_ADC_bm))
 443:/usr/local/Cellar/avr-gcc/4.7.2/lib/gcc/avr/4.7.2/../../../../avr/include/avr/power.h **** #define power_adcb_disable()    (PR_PRPB |= (uint8_t)PR_ADC_bm)
 444:/usr/local/Cellar/avr-gcc/4.7.2/lib/gcc/avr/4.7.2/../../../../avr/include/avr/power.h **** 
 445:/usr/local/Cellar/avr-gcc/4.7.2/lib/gcc/avr/4.7.2/../../../../avr/include/avr/power.h **** #define power_aca_enable()      (PR_PRPA &= (uint8_t)~(PR_AC_bm))
 446:/usr/local/Cellar/avr-gcc/4.7.2/lib/gcc/avr/4.7.2/../../../../avr/include/avr/power.h **** #define power_aca_disable()     (PR_PRPA |= (uint8_t)PR_AC_bm)
 447:/usr/local/Cellar/avr-gcc/4.7.2/lib/gcc/avr/4.7.2/../../../../avr/include/avr/power.h **** #define power_acb_enable()      (PR_PRPB &= (uint8_t)~(PR_AC_bm))
 448:/usr/local/Cellar/avr-gcc/4.7.2/lib/gcc/avr/4.7.2/../../../../avr/include/avr/power.h **** #define power_acb_disable()     (PR_PRPB |= (uint8_t)PR_AC_bm)
 449:/usr/local/Cellar/avr-gcc/4.7.2/lib/gcc/avr/4.7.2/../../../../avr/include/avr/power.h **** 
 450:/usr/local/Cellar/avr-gcc/4.7.2/lib/gcc/avr/4.7.2/../../../../avr/include/avr/power.h **** #define power_twic_enable()     (PR_PRPC &= (uint8_t)~(PR_TWI_bm))
 451:/usr/local/Cellar/avr-gcc/4.7.2/lib/gcc/avr/4.7.2/../../../../avr/include/avr/power.h **** #define power_twic_disable()    (PR_PRPC |= (uint8_t)PR_TWI_bm)
 452:/usr/local/Cellar/avr-gcc/4.7.2/lib/gcc/avr/4.7.2/../../../../avr/include/avr/power.h **** #define power_twid_enable()     (PR_PRPD &= (uint8_t)~(PR_TWI_bm))
 453:/usr/local/Cellar/avr-gcc/4.7.2/lib/gcc/avr/4.7.2/../../../../avr/include/avr/power.h **** #define power_twid_disable()    (PR_PRPD |= (uint8_t)PR_TWI_bm)
 454:/usr/local/Cellar/avr-gcc/4.7.2/lib/gcc/avr/4.7.2/../../../../avr/include/avr/power.h **** #define power_twie_enable()     (PR_PRPE &= (uint8_t)~(PR_TWI_bm))
 455:/usr/local/Cellar/avr-gcc/4.7.2/lib/gcc/avr/4.7.2/../../../../avr/include/avr/power.h **** #define power_twie_disable()    (PR_PRPE |= (uint8_t)PR_TWI_bm)
 456:/usr/local/Cellar/avr-gcc/4.7.2/lib/gcc/avr/4.7.2/../../../../avr/include/avr/power.h **** #define power_twif_enable()     (PR_PRPF &= (uint8_t)~(PR_TWI_bm))
 457:/usr/local/Cellar/avr-gcc/4.7.2/lib/gcc/avr/4.7.2/../../../../avr/include/avr/power.h **** #define power_twif_disable()    (PR_PRPF |= (uint8_t)PR_TWI_bm)
 458:/usr/local/Cellar/avr-gcc/4.7.2/lib/gcc/avr/4.7.2/../../../../avr/include/avr/power.h **** 
 459:/usr/local/Cellar/avr-gcc/4.7.2/lib/gcc/avr/4.7.2/../../../../avr/include/avr/power.h **** #define power_usartc0_enable()  (PR_PRPC &= (uint8_t)~(PR_USART0_bm))
 460:/usr/local/Cellar/avr-gcc/4.7.2/lib/gcc/avr/4.7.2/../../../../avr/include/avr/power.h **** #define power_usartc0_disable() (PR_PRPC |= (uint8_t)PR_USART0_bm)
 461:/usr/local/Cellar/avr-gcc/4.7.2/lib/gcc/avr/4.7.2/../../../../avr/include/avr/power.h **** #define power_usartd0_enable()  (PR_PRPD &= (uint8_t)~(PR_USART0_bm))
 462:/usr/local/Cellar/avr-gcc/4.7.2/lib/gcc/avr/4.7.2/../../../../avr/include/avr/power.h **** #define power_usartd0_disable() (PR_PRPD |= (uint8_t)PR_USART0_bm)
 463:/usr/local/Cellar/avr-gcc/4.7.2/lib/gcc/avr/4.7.2/../../../../avr/include/avr/power.h **** #define power_usarte0_enable()  (PR_PRPE &= (uint8_t)~(PR_USART0_bm))
 464:/usr/local/Cellar/avr-gcc/4.7.2/lib/gcc/avr/4.7.2/../../../../avr/include/avr/power.h **** #define power_usarte0_disable() (PR_PRPE |= (uint8_t)PR_USART0_bm)
 465:/usr/local/Cellar/avr-gcc/4.7.2/lib/gcc/avr/4.7.2/../../../../avr/include/avr/power.h **** #define power_usartf0_enable()  (PR_PRPF &= (uint8_t)~(PR_USART0_bm))
 466:/usr/local/Cellar/avr-gcc/4.7.2/lib/gcc/avr/4.7.2/../../../../avr/include/avr/power.h **** #define power_usartf0_disable() (PR_PRPF |= (uint8_t)PR_USART0_bm)
 467:/usr/local/Cellar/avr-gcc/4.7.2/lib/gcc/avr/4.7.2/../../../../avr/include/avr/power.h **** 
 468:/usr/local/Cellar/avr-gcc/4.7.2/lib/gcc/avr/4.7.2/../../../../avr/include/avr/power.h **** #define power_spic_enable()     (PR_PRPC &= (uint8_t)~(PR_SPI_bm))
 469:/usr/local/Cellar/avr-gcc/4.7.2/lib/gcc/avr/4.7.2/../../../../avr/include/avr/power.h **** #define power_spic_disable()    (PR_PRPC |= (uint8_t)PR_SPI_bm)
 470:/usr/local/Cellar/avr-gcc/4.7.2/lib/gcc/avr/4.7.2/../../../../avr/include/avr/power.h **** #define power_spid_enable()     (PR_PRPD &= (uint8_t)~(PR_SPI_bm))
 471:/usr/local/Cellar/avr-gcc/4.7.2/lib/gcc/avr/4.7.2/../../../../avr/include/avr/power.h **** #define power_spid_disable()    (PR_PRPD |= (uint8_t)PR_SPI_bm)
 472:/usr/local/Cellar/avr-gcc/4.7.2/lib/gcc/avr/4.7.2/../../../../avr/include/avr/power.h **** #define power_spie_enable()     (PR_PRPE &= (uint8_t)~(PR_SPI_bm))
 473:/usr/local/Cellar/avr-gcc/4.7.2/lib/gcc/avr/4.7.2/../../../../avr/include/avr/power.h **** #define power_spie_disable()    (PR_PRPE |= (uint8_t)PR_SPI_bm)
 474:/usr/local/Cellar/avr-gcc/4.7.2/lib/gcc/avr/4.7.2/../../../../avr/include/avr/power.h **** #define power_spif_enable()     (PR_PRPF &= (uint8_t)~(PR_SPI_bm))
 475:/usr/local/Cellar/avr-gcc/4.7.2/lib/gcc/avr/4.7.2/../../../../avr/include/avr/power.h **** #define power_spif_disable()    (PR_PRPF |= (uint8_t)PR_SPI_bm)
 476:/usr/local/Cellar/avr-gcc/4.7.2/lib/gcc/avr/4.7.2/../../../../avr/include/avr/power.h **** 
 477:/usr/local/Cellar/avr-gcc/4.7.2/lib/gcc/avr/4.7.2/../../../../avr/include/avr/power.h **** #define power_hiresc_enable()   (PR_PRPC &= (uint8_t)~(PR_HIRES_bm))
 478:/usr/local/Cellar/avr-gcc/4.7.2/lib/gcc/avr/4.7.2/../../../../avr/include/avr/power.h **** #define power_hiresc_disable()  (PR_PRPC |= (uint8_t)PR_HIRES_bm)
 479:/usr/local/Cellar/avr-gcc/4.7.2/lib/gcc/avr/4.7.2/../../../../avr/include/avr/power.h **** #define power_hiresd_enable()   (PR_PRPD &= (uint8_t)~(PR_HIRES_bm))
 480:/usr/local/Cellar/avr-gcc/4.7.2/lib/gcc/avr/4.7.2/../../../../avr/include/avr/power.h **** #define power_hiresd_disable()  (PR_PRPD |= (uint8_t)PR_HIRES_bm)
 481:/usr/local/Cellar/avr-gcc/4.7.2/lib/gcc/avr/4.7.2/../../../../avr/include/avr/power.h **** #define power_hirese_enable()   (PR_PRPE &= (uint8_t)~(PR_HIRES_bm))
 482:/usr/local/Cellar/avr-gcc/4.7.2/lib/gcc/avr/4.7.2/../../../../avr/include/avr/power.h **** #define power_hirese_disable()  (PR_PRPE |= (uint8_t)PR_HIRES_bm)
 483:/usr/local/Cellar/avr-gcc/4.7.2/lib/gcc/avr/4.7.2/../../../../avr/include/avr/power.h **** #define power_hiresf_enable()   (PR_PRPF &= (uint8_t)~(PR_HIRES_bm))
 484:/usr/local/Cellar/avr-gcc/4.7.2/lib/gcc/avr/4.7.2/../../../../avr/include/avr/power.h **** #define power_hiresf_disable()  (PR_PRPF |= (uint8_t)PR_HIRES_bm)
 485:/usr/local/Cellar/avr-gcc/4.7.2/lib/gcc/avr/4.7.2/../../../../avr/include/avr/power.h **** 
