   1               		.file	"keymap.c"
   2               	__SP_H__ = 0x3e
   3               	__SP_L__ = 0x3d
   4               	__SREG__ = 0x3f
   5               	__tmp_reg__ = 0
   6               	__zero_reg__ = 1
   7               		.text
   8               	.Ltext0:
   9               		.cfi_sections	.debug_frame
  10               		.section	.text.keycode_to_action,"ax",@progbits
  12               	keycode_to_action:
  13               	.LFB105:
  14               		.file 1 "../../common/keymap.c"
   1:../../common/keymap.c **** /*
   2:../../common/keymap.c **** Copyright 2013 Jun Wako <wakojun@gmail.com>
   3:../../common/keymap.c **** 
   4:../../common/keymap.c **** This program is free software: you can redistribute it and/or modify
   5:../../common/keymap.c **** it under the terms of the GNU General Public License as published by
   6:../../common/keymap.c **** the Free Software Foundation, either version 2 of the License, or
   7:../../common/keymap.c **** (at your option) any later version.
   8:../../common/keymap.c **** 
   9:../../common/keymap.c **** This program is distributed in the hope that it will be useful,
  10:../../common/keymap.c **** but WITHOUT ANY WARRANTY; without even the implied warranty of
  11:../../common/keymap.c **** MERCHANTABILITY or FITNESS FOR A PARTICULAR PURPOSE.  See the
  12:../../common/keymap.c **** GNU General Public License for more details.
  13:../../common/keymap.c **** 
  14:../../common/keymap.c **** You should have received a copy of the GNU General Public License
  15:../../common/keymap.c **** along with this program.  If not, see <http://www.gnu.org/licenses/>.
  16:../../common/keymap.c **** */
  17:../../common/keymap.c **** #include <avr/pgmspace.h>
  18:../../common/keymap.c **** #include "keymap.h"
  19:../../common/keymap.c **** #include "report.h"
  20:../../common/keymap.c **** #include "keycode.h"
  21:../../common/keymap.c **** #include "action_layer.h"
  22:../../common/keymap.c **** #include "action.h"
  23:../../common/keymap.c **** #include "action_macro.h"
  24:../../common/keymap.c **** #include "debug.h"
  25:../../common/keymap.c **** 
  26:../../common/keymap.c **** 
  27:../../common/keymap.c **** static action_t keycode_to_action(uint8_t keycode);
  28:../../common/keymap.c **** 
  29:../../common/keymap.c **** 
  30:../../common/keymap.c **** /* converts key to action */
  31:../../common/keymap.c **** action_t action_for_key(uint8_t layer, key_t key)
  32:../../common/keymap.c **** {
  33:../../common/keymap.c ****     uint8_t keycode = keymap_key_to_keycode(layer, key);
  34:../../common/keymap.c ****     switch (keycode) {
  35:../../common/keymap.c ****         case KC_FN0 ... KC_FN31:
  36:../../common/keymap.c ****             return keymap_fn_to_action(keycode);
  37:../../common/keymap.c **** #ifdef BOOTMAGIC_ENABLE
  38:../../common/keymap.c ****         case KC_CAPSLOCK:
  39:../../common/keymap.c ****         case KC_LOCKING_CAPS:
  40:../../common/keymap.c ****             if (keymap_config.swap_control_capslock || keymap_config.capslock_to_control) {
  41:../../common/keymap.c ****                 return keycode_to_action(KC_LCTL);
  42:../../common/keymap.c ****             }
  43:../../common/keymap.c ****             return keycode_to_action(keycode);
  44:../../common/keymap.c ****         case KC_LCTL:
  45:../../common/keymap.c ****             if (keymap_config.swap_control_capslock) {
  46:../../common/keymap.c ****                 return keycode_to_action(KC_CAPSLOCK);
  47:../../common/keymap.c ****             }
  48:../../common/keymap.c ****             return keycode_to_action(KC_LCTL);
  49:../../common/keymap.c ****         case KC_LALT:
  50:../../common/keymap.c ****             if (keymap_config.swap_lalt_lgui) {
  51:../../common/keymap.c ****                 if (keymap_config.no_gui) {
  52:../../common/keymap.c ****                     return keycode_to_action(ACTION_NO);
  53:../../common/keymap.c ****                 }
  54:../../common/keymap.c ****                 return keycode_to_action(KC_LGUI);
  55:../../common/keymap.c ****             }
  56:../../common/keymap.c ****             return keycode_to_action(KC_LALT);
  57:../../common/keymap.c ****         case KC_LGUI:
  58:../../common/keymap.c ****             if (keymap_config.swap_lalt_lgui) {
  59:../../common/keymap.c ****                 return keycode_to_action(KC_LALT);
  60:../../common/keymap.c ****             }
  61:../../common/keymap.c ****             if (keymap_config.no_gui) {
  62:../../common/keymap.c ****                 return keycode_to_action(ACTION_NO);
  63:../../common/keymap.c ****             }
  64:../../common/keymap.c ****             return keycode_to_action(KC_LGUI);
  65:../../common/keymap.c ****         case KC_RALT:
  66:../../common/keymap.c ****             if (keymap_config.swap_ralt_rgui) {
  67:../../common/keymap.c ****                 if (keymap_config.no_gui) {
  68:../../common/keymap.c ****                     return keycode_to_action(ACTION_NO);
  69:../../common/keymap.c ****                 }
  70:../../common/keymap.c ****                 return keycode_to_action(KC_RGUI);
  71:../../common/keymap.c ****             }
  72:../../common/keymap.c ****             return keycode_to_action(KC_RALT);
  73:../../common/keymap.c ****         case KC_RGUI:
  74:../../common/keymap.c ****             if (keymap_config.swap_ralt_rgui) {
  75:../../common/keymap.c ****                 return keycode_to_action(KC_RALT);
  76:../../common/keymap.c ****             }
  77:../../common/keymap.c ****             if (keymap_config.no_gui) {
  78:../../common/keymap.c ****                 return keycode_to_action(ACTION_NO);
  79:../../common/keymap.c ****             }
  80:../../common/keymap.c ****             return keycode_to_action(KC_RGUI);
  81:../../common/keymap.c ****         case KC_GRAVE:
  82:../../common/keymap.c ****             if (keymap_config.swap_grave_esc) {
  83:../../common/keymap.c ****                 return keycode_to_action(KC_ESC);
  84:../../common/keymap.c ****             }
  85:../../common/keymap.c ****             return keycode_to_action(KC_GRAVE);
  86:../../common/keymap.c ****         case KC_ESC:
  87:../../common/keymap.c ****             if (keymap_config.swap_grave_esc) {
  88:../../common/keymap.c ****                 return keycode_to_action(KC_GRAVE);
  89:../../common/keymap.c ****             }
  90:../../common/keymap.c ****             return keycode_to_action(KC_ESC);
  91:../../common/keymap.c ****         case KC_BSLASH:
  92:../../common/keymap.c ****             if (keymap_config.swap_backslash_backspace) {
  93:../../common/keymap.c ****                 return keycode_to_action(KC_BSPACE);
  94:../../common/keymap.c ****             }
  95:../../common/keymap.c ****             return keycode_to_action(KC_BSLASH);
  96:../../common/keymap.c ****         case KC_BSPACE:
  97:../../common/keymap.c ****             if (keymap_config.swap_backslash_backspace) {
  98:../../common/keymap.c ****                 return keycode_to_action(KC_BSLASH);
  99:../../common/keymap.c ****             }
 100:../../common/keymap.c ****             return keycode_to_action(KC_BSPACE);
 101:../../common/keymap.c **** #endif
 102:../../common/keymap.c ****         default:
 103:../../common/keymap.c ****             return keycode_to_action(keycode);
 104:../../common/keymap.c ****     }
 105:../../common/keymap.c **** }
 106:../../common/keymap.c **** 
 107:../../common/keymap.c **** 
 108:../../common/keymap.c **** /* Macro */
 109:../../common/keymap.c **** __attribute__ ((weak))
 110:../../common/keymap.c **** const macro_t *action_get_macro(keyrecord_t *record, uint8_t id, uint8_t opt)
 111:../../common/keymap.c **** {
 112:../../common/keymap.c ****     return MACRO_NONE;
 113:../../common/keymap.c **** }
 114:../../common/keymap.c **** 
 115:../../common/keymap.c **** /* Function */
 116:../../common/keymap.c **** __attribute__ ((weak))
 117:../../common/keymap.c **** void action_function(keyrecord_t *record, uint8_t id, uint8_t opt)
 118:../../common/keymap.c **** {
 119:../../common/keymap.c **** }
 120:../../common/keymap.c **** 
 121:../../common/keymap.c **** 
 122:../../common/keymap.c **** 
 123:../../common/keymap.c **** /* translates keycode to action */
 124:../../common/keymap.c **** static action_t keycode_to_action(uint8_t keycode)
 125:../../common/keymap.c **** {
  15               		.loc 1 125 0
  16               		.cfi_startproc
  17               	.LVL0:
  18               	/* prologue: function */
  19               	/* frame size = 0 */
  20               	/* stack size = 0 */
  21               	.L__stack_usage = 0
 126:../../common/keymap.c ****     action_t action;
 127:../../common/keymap.c ****     switch (keycode) {
  22               		.loc 1 127 0
  23 0000 8B3B      		cpi r24,lo8(-69)
  24 0002 00F4      		brsh .L3
  25 0004 883A      		cpi r24,lo8(-88)
  26 0006 00F4      		brsh .L4
  27 0008 853A      		cpi r24,lo8(-91)
  28 000a 00F4      		brsh .L5
  29 000c 8430      		cpi r24,lo8(4)
  30 000e 00F4      		brsh .L6
  31 0010 8130      		cpi r24,lo8(1)
  32 0012 01F4      		brne .+2
  33 0014 00C0      		rjmp .L9
  34 0016 00C0      		rjmp .L2
  35               	.L3:
  36 0018 803E      		cpi r24,lo8(-32)
  37 001a 00F0      		brlo .L2
  38 001c 883E      		cpi r24,lo8(-24)
  39 001e 00F0      		brlo .L6
  40 0020 803F      		cpi r24,lo8(-16)
  41 0022 00F0      		brlo .+2
  42 0024 00C0      		rjmp .L31
  43               	.L2:
 128:../../common/keymap.c ****         case KC_A ... KC_EXSEL:
 129:../../common/keymap.c ****         case KC_LCTRL ... KC_RGUI:
 130:../../common/keymap.c ****             action.code = ACTION_KEY(keycode);
 131:../../common/keymap.c ****             break;
 132:../../common/keymap.c ****         case KC_SYSTEM_POWER ... KC_SYSTEM_WAKE:
 133:../../common/keymap.c ****             action.code = ACTION_USAGE_SYSTEM(KEYCODE2SYSTEM(keycode));
 134:../../common/keymap.c ****             break;
 135:../../common/keymap.c ****         case KC_AUDIO_MUTE ... KC_WWW_FAVORITES:
 136:../../common/keymap.c ****             action.code = ACTION_USAGE_CONSUMER(KEYCODE2CONSUMER(keycode));
 137:../../common/keymap.c ****             break;
 138:../../common/keymap.c ****         case KC_MS_UP ... KC_MS_ACCEL2:
 139:../../common/keymap.c ****             action.code = ACTION_MOUSEKEY(keycode);
 140:../../common/keymap.c ****             break;
 141:../../common/keymap.c ****         case KC_TRNS:
 142:../../common/keymap.c ****             action.code = ACTION_TRANSPARENT;
 143:../../common/keymap.c ****             break;
 144:../../common/keymap.c ****         default:
 145:../../common/keymap.c ****             action.code = ACTION_NO;
  44               		.loc 1 145 0
  45 0026 80E0      		ldi r24,0
  46 0028 90E0      		ldi r25,0
  47               	.LVL1:
  48 002a 0895      		ret
  49               	.LVL2:
  50               	.L6:
 130:../../common/keymap.c ****             break;
  51               		.loc 1 130 0
  52 002c 90E0      		ldi r25,0
  53               	.LVL3:
 131:../../common/keymap.c ****         case KC_SYSTEM_POWER ... KC_SYSTEM_WAKE:
  54               		.loc 1 131 0
  55 002e 0895      		ret
  56               	.LVL4:
  57               	.L5:
 133:../../common/keymap.c ****             break;
  58               		.loc 1 133 0
  59 0030 853A      		cpi r24,lo8(-91)
  60 0032 01F4      		brne .+2
  61 0034 00C0      		rjmp .L10
 133:../../common/keymap.c ****             break;
  62               		.loc 1 133 0 is_stmt 0 discriminator 1
  63 0036 863A      		cpi r24,lo8(-90)
  64 0038 01F4      		brne .+2
  65 003a 00C0      		rjmp .L11
 133:../../common/keymap.c ****             break;
  66               		.loc 1 133 0
  67 003c 83E8      		ldi r24,lo8(-125)
  68 003e 90E4      		ldi r25,lo8(64)
  69               	.LVL5:
  70 0040 0895      		ret
  71               	.LVL6:
  72               	.L4:
 136:../../common/keymap.c ****             break;
  73               		.loc 1 136 0 is_stmt 1
  74 0042 883A      		cpi r24,lo8(-88)
  75 0044 01F4      		brne .+2
  76 0046 00C0      		rjmp .L12
 136:../../common/keymap.c ****             break;
  77               		.loc 1 136 0 is_stmt 0 discriminator 1
  78 0048 893A      		cpi r24,lo8(-87)
  79 004a 01F4      		brne .+2
  80 004c 00C0      		rjmp .L13
 136:../../common/keymap.c ****             break;
  81               		.loc 1 136 0 discriminator 3
  82 004e 8A3A      		cpi r24,lo8(-86)
  83 0050 01F4      		brne .+2
  84 0052 00C0      		rjmp .L14
 136:../../common/keymap.c ****             break;
  85               		.loc 1 136 0 discriminator 5
  86 0054 8B3A      		cpi r24,lo8(-85)
  87 0056 01F4      		brne .+2
  88 0058 00C0      		rjmp .L15
 136:../../common/keymap.c ****             break;
  89               		.loc 1 136 0 discriminator 7
  90 005a 8C3A      		cpi r24,lo8(-84)
  91 005c 01F4      		brne .+2
  92 005e 00C0      		rjmp .L16
 136:../../common/keymap.c ****             break;
  93               		.loc 1 136 0 discriminator 9
  94 0060 8D3A      		cpi r24,lo8(-83)
  95 0062 01F4      		brne .+2
  96 0064 00C0      		rjmp .L17
 136:../../common/keymap.c ****             break;
  97               		.loc 1 136 0 discriminator 11
  98 0066 803B      		cpi r24,lo8(-80)
  99 0068 01F4      		brne .+2
 100 006a 00C0      		rjmp .L18
 136:../../common/keymap.c ****             break;
 101               		.loc 1 136 0 discriminator 13
 102 006c 8E3A      		cpi r24,lo8(-82)
 103 006e 01F4      		brne .+2
 104 0070 00C0      		rjmp .L19
 136:../../common/keymap.c ****             break;
 105               		.loc 1 136 0 discriminator 15
 106 0072 8F3A      		cpi r24,lo8(-81)
 107 0074 01F4      		brne .+2
 108 0076 00C0      		rjmp .L20
 136:../../common/keymap.c ****             break;
 109               		.loc 1 136 0 discriminator 17
 110 0078 813B      		cpi r24,lo8(-79)
 111 007a 01F4      		brne .+2
 112 007c 00C0      		rjmp .L21
 136:../../common/keymap.c ****             break;
 113               		.loc 1 136 0 discriminator 19
 114 007e 823B      		cpi r24,lo8(-78)
 115 0080 01F4      		brne .+2
 116 0082 00C0      		rjmp .L22
 136:../../common/keymap.c ****             break;
 117               		.loc 1 136 0 discriminator 21
 118 0084 833B      		cpi r24,lo8(-77)
 119 0086 01F4      		brne .+2
 120 0088 00C0      		rjmp .L23
 136:../../common/keymap.c ****             break;
 121               		.loc 1 136 0 discriminator 23
 122 008a 843B      		cpi r24,lo8(-76)
 123 008c 01F4      		brne .+2
 124 008e 00C0      		rjmp .L24
 136:../../common/keymap.c ****             break;
 125               		.loc 1 136 0 discriminator 25
 126 0090 853B      		cpi r24,lo8(-75)
 127 0092 01F4      		brne .+2
 128 0094 00C0      		rjmp .L25
 136:../../common/keymap.c ****             break;
 129               		.loc 1 136 0 discriminator 27
 130 0096 863B      		cpi r24,lo8(-74)
 131 0098 01F4      		brne .+2
 132 009a 00C0      		rjmp .L26
 136:../../common/keymap.c ****             break;
 133               		.loc 1 136 0 discriminator 29
 134 009c 873B      		cpi r24,lo8(-73)
 135 009e 01F4      		brne .+2
 136 00a0 00C0      		rjmp .L27
 136:../../common/keymap.c ****             break;
 137               		.loc 1 136 0 discriminator 31
 138 00a2 883B      		cpi r24,lo8(-72)
 139 00a4 01F4      		brne .+2
 140 00a6 00C0      		rjmp .L28
 136:../../common/keymap.c ****             break;
 141               		.loc 1 136 0 discriminator 33
 142 00a8 893B      		cpi r24,lo8(-71)
 143 00aa 01F4      		brne .+2
 144 00ac 00C0      		rjmp .L29
 136:../../common/keymap.c ****             break;
 145               		.loc 1 136 0 discriminator 35
 146 00ae 8A3B      		cpi r24,lo8(-70)
 147 00b0 01F4      		brne .+2
 148 00b2 00C0      		rjmp .L30
 136:../../common/keymap.c ****             break;
 149               		.loc 1 136 0
 150 00b4 80E0      		ldi r24,0
 151 00b6 94E4      		ldi r25,lo8(68)
 152               	.LVL7:
 153 00b8 0895      		ret
 154               	.LVL8:
 155               	.L31:
 139:../../common/keymap.c ****             break;
 156               		.loc 1 139 0 is_stmt 1
 157 00ba 90E0      		ldi r25,0
 158 00bc 9065      		ori r25,80
 159               	.LVL9:
 140:../../common/keymap.c ****         case KC_TRNS:
 160               		.loc 1 140 0
 161 00be 0895      		ret
 162               	.LVL10:
 163               	.L9:
 142:../../common/keymap.c ****             break;
 164               		.loc 1 142 0
 165 00c0 81E0      		ldi r24,lo8(1)
 166 00c2 90E0      		ldi r25,0
 167               	.LVL11:
 168 00c4 0895      		ret
 169               	.LVL12:
 170               	.L10:
 133:../../common/keymap.c ****             break;
 171               		.loc 1 133 0
 172 00c6 81E8      		ldi r24,lo8(-127)
 173 00c8 90E4      		ldi r25,lo8(64)
 174               	.LVL13:
 175 00ca 0895      		ret
 176               	.LVL14:
 177               	.L11:
 178 00cc 82E8      		ldi r24,lo8(-126)
 179 00ce 90E4      		ldi r25,lo8(64)
 180               	.LVL15:
 181 00d0 0895      		ret
 182               	.LVL16:
 183               	.L12:
 136:../../common/keymap.c ****             break;
 184               		.loc 1 136 0
 185 00d2 82EE      		ldi r24,lo8(-30)
 186 00d4 94E4      		ldi r25,lo8(68)
 187               	.LVL17:
 188 00d6 0895      		ret
 189               	.LVL18:
 190               	.L13:
 191 00d8 89EE      		ldi r24,lo8(-23)
 192 00da 94E4      		ldi r25,lo8(68)
 193               	.LVL19:
 194 00dc 0895      		ret
 195               	.LVL20:
 196               	.L14:
 197 00de 8AEE      		ldi r24,lo8(-22)
 198 00e0 94E4      		ldi r25,lo8(68)
 199               	.LVL21:
 200 00e2 0895      		ret
 201               	.LVL22:
 202               	.L15:
 203 00e4 85EB      		ldi r24,lo8(-75)
 204 00e6 94E4      		ldi r25,lo8(68)
 205               	.LVL23:
 206 00e8 0895      		ret
 207               	.LVL24:
 208               	.L16:
 209 00ea 86EB      		ldi r24,lo8(-74)
 210 00ec 94E4      		ldi r25,lo8(68)
 211               	.LVL25:
 212 00ee 0895      		ret
 213               	.LVL26:
 214               	.L17:
 215 00f0 87EB      		ldi r24,lo8(-73)
 216 00f2 94E4      		ldi r25,lo8(68)
 217               	.LVL27:
 218 00f4 0895      		ret
 219               	.LVL28:
 220               	.L18:
 221 00f6 8CEC      		ldi r24,lo8(-52)
 222 00f8 94E4      		ldi r25,lo8(68)
 223               	.LVL29:
 224 00fa 0895      		ret
 225               	.LVL30:
 226               	.L19:
 227 00fc 8DEC      		ldi r24,lo8(-51)
 228 00fe 94E4      		ldi r25,lo8(68)
 229               	.LVL31:
 230 0100 0895      		ret
 231               	.LVL32:
 232               	.L20:
 233 0102 83E8      		ldi r24,lo8(-125)
 234 0104 95E4      		ldi r25,lo8(69)
 235               	.LVL33:
 236 0106 0895      		ret
 237               	.LVL34:
 238               	.L21:
 239 0108 8AE8      		ldi r24,lo8(-118)
 240 010a 95E4      		ldi r25,lo8(69)
 241               	.LVL35:
 242 010c 0895      		ret
 243               	.LVL36:
 244               	.L22:
 245 010e 82E9      		ldi r24,lo8(-110)
 246 0110 95E4      		ldi r25,lo8(69)
 247               	.LVL37:
 248 0112 0895      		ret
 249               	.LVL38:
 250               	.L23:
 251 0114 84E9      		ldi r24,lo8(-108)
 252 0116 95E4      		ldi r25,lo8(69)
 253               	.LVL39:
 254 0118 0895      		ret
 255               	.LVL40:
 256               	.L24:
 257 011a 81E2      		ldi r24,lo8(33)
 258 011c 96E4      		ldi r25,lo8(70)
 259               	.LVL41:
 260 011e 0895      		ret
 261               	.LVL42:
 262               	.L25:
 263 0120 83E2      		ldi r24,lo8(35)
 264 0122 96E4      		ldi r25,lo8(70)
 265               	.LVL43:
 266 0124 0895      		ret
 267               	.LVL44:
 268               	.L26:
 269 0126 84E2      		ldi r24,lo8(36)
 270 0128 96E4      		ldi r25,lo8(70)
 271               	.LVL45:
 272 012a 0895      		ret
 273               	.LVL46:
 274               	.L27:
 275 012c 85E2      		ldi r24,lo8(37)
 276 012e 96E4      		ldi r25,lo8(70)
 277               	.LVL47:
 278 0130 0895      		ret
 279               	.LVL48:
 280               	.L28:
 281 0132 86E2      		ldi r24,lo8(38)
 282 0134 96E4      		ldi r25,lo8(70)
 283               	.LVL49:
 284 0136 0895      		ret
 285               	.LVL50:
 286               	.L29:
 287 0138 87E2      		ldi r24,lo8(39)
 288 013a 96E4      		ldi r25,lo8(70)
 289               	.LVL51:
 290 013c 0895      		ret
 291               	.LVL52:
 292               	.L30:
 293 013e 8AE2      		ldi r24,lo8(42)
 294 0140 96E4      		ldi r25,lo8(70)
 295               	.LVL53:
 146:../../common/keymap.c ****             break;
 147:../../common/keymap.c ****     }
 148:../../common/keymap.c ****     return action;
 149:../../common/keymap.c **** }
 296               		.loc 1 149 0
 297 0142 0895      		ret
 298               		.cfi_endproc
 299               	.LFE105:
 301               		.section	.text.action_for_key,"ax",@progbits
 302               	.global	action_for_key
 304               	action_for_key:
 305               	.LFB102:
  32:../../common/keymap.c ****     uint8_t keycode = keymap_key_to_keycode(layer, key);
 306               		.loc 1 32 0
 307               		.cfi_startproc
 308               	.LVL54:
 309               	/* prologue: function */
 310               	/* frame size = 0 */
 311               	/* stack size = 0 */
 312               	.L__stack_usage = 0
  33:../../common/keymap.c ****     switch (keycode) {
 313               		.loc 1 33 0
 314 0000 0E94 0000 		call keymap_key_to_keycode
 315               	.LVL55:
  34:../../common/keymap.c ****         case KC_FN0 ... KC_FN31:
 316               		.loc 1 34 0
 317 0004 803E      		cpi r24,lo8(-32)
 318 0006 00F4      		brsh .L35
 319 0008 803C      		cpi r24,lo8(-64)
 320 000a 00F4      		brsh .L36
 321 000c 8133      		cpi r24,lo8(49)
 322 000e 01F4      		brne .+2
 323 0010 00C0      		rjmp .L37
 324 0012 00F4      		brsh .L38
 325 0014 8932      		cpi r24,lo8(41)
 326 0016 01F4      		brne .+2
 327 0018 00C0      		rjmp .L39
 328 001a 8A32      		cpi r24,lo8(42)
 329 001c 01F4      		brne .+2
 330 001e 00C0      		rjmp .L40
 331 0020 00C0      		rjmp .L34
 332               	.L38:
 333 0022 8933      		cpi r24,lo8(57)
 334 0024 01F0      		breq .L41
 335 0026 8238      		cpi r24,lo8(-126)
 336 0028 01F0      		breq .L41
 337 002a 8533      		cpi r24,lo8(53)
 338 002c 01F4      		brne .+2
 339 002e 00C0      		rjmp .L42
 340 0030 00C0      		rjmp .L34
 341               	.L35:
 342 0032 833E      		cpi r24,lo8(-29)
 343 0034 01F0      		breq .L43
 344 0036 00F4      		brsh .L44
 345 0038 803E      		cpi r24,lo8(-32)
 346 003a 01F0      		breq .L45
 347 003c 823E      		cpi r24,lo8(-30)
 348 003e 01F0      		breq .L46
 349 0040 00C0      		rjmp .L34
 350               	.L44:
 351 0042 863E      		cpi r24,lo8(-26)
 352 0044 01F0      		breq .L47
 353 0046 873E      		cpi r24,lo8(-25)
 354 0048 01F0      		breq .L48
 355 004a 00C0      		rjmp .L34
 356               	.L36:
  36:../../common/keymap.c **** #ifdef BOOTMAGIC_ENABLE
 357               		.loc 1 36 0
 358 004c 0E94 0000 		call keymap_fn_to_action
 359               	.LVL56:
 360 0050 0895      		ret
 361               	.LVL57:
 362               	.L41:
  40:../../common/keymap.c ****                 return keycode_to_action(KC_LCTL);
 363               		.loc 1 40 0
 364 0052 9091 0000 		lds r25,keymap_config
 365 0056 90FD      		sbrc r25,0
 366 0058 00C0      		rjmp .L50
  40:../../common/keymap.c ****                 return keycode_to_action(KC_LCTL);
 367               		.loc 1 40 0 is_stmt 0 discriminator 1
 368 005a 91FF      		sbrs r25,1
 369 005c 00C0      		rjmp .L34
 370               	.LVL58:
 371               	.L50:
  41:../../common/keymap.c ****             }
 372               		.loc 1 41 0 is_stmt 1
 373 005e 80EE      		ldi r24,lo8(-32)
 374 0060 00C0      		rjmp .L34
 375               	.LVL59:
 376               	.L45:
  45:../../common/keymap.c ****                 return keycode_to_action(KC_CAPSLOCK);
 377               		.loc 1 45 0
 378 0062 8091 0000 		lds r24,keymap_config
 379               	.LVL60:
 380 0066 80FF      		sbrs r24,0
 381 0068 00C0      		rjmp .L50
  46:../../common/keymap.c ****             }
 382               		.loc 1 46 0
 383 006a 89E3      		ldi r24,lo8(57)
 384 006c 00C0      		rjmp .L34
 385               	.LVL61:
 386               	.L46:
  50:../../common/keymap.c ****                 if (keymap_config.no_gui) {
 387               		.loc 1 50 0
 388 006e 8091 0000 		lds r24,keymap_config
 389               	.LVL62:
 390 0072 82FF      		sbrs r24,2
 391 0074 00C0      		rjmp .L52
 392               	.L54:
  51:../../common/keymap.c ****                     return keycode_to_action(ACTION_NO);
 393               		.loc 1 51 0
 394 0076 8091 0000 		lds r24,keymap_config
 395 007a 84FF      		sbrs r24,4
 396 007c 00C0      		rjmp .L53
 397               	.L56:
  52:../../common/keymap.c ****                 }
 398               		.loc 1 52 0
 399 007e 80E0      		ldi r24,0
 400 0080 00C0      		rjmp .L34
 401               	.L53:
  54:../../common/keymap.c ****             }
 402               		.loc 1 54 0
 403 0082 83EE      		ldi r24,lo8(-29)
 404 0084 00C0      		rjmp .L34
 405               	.LVL63:
 406               	.L43:
  58:../../common/keymap.c ****                 return keycode_to_action(KC_LALT);
 407               		.loc 1 58 0
 408 0086 8091 0000 		lds r24,keymap_config
 409               	.LVL64:
 410 008a 82FF      		sbrs r24,2
 411 008c 00C0      		rjmp .L54
 412               	.L52:
  56:../../common/keymap.c ****         case KC_LGUI:
 413               		.loc 1 56 0
 414 008e 82EE      		ldi r24,lo8(-30)
 415 0090 00C0      		rjmp .L34
 416               	.LVL65:
 417               	.L47:
  66:../../common/keymap.c ****                 if (keymap_config.no_gui) {
 418               		.loc 1 66 0
 419 0092 8091 0000 		lds r24,keymap_config
 420               	.LVL66:
 421 0096 83FF      		sbrs r24,3
 422 0098 00C0      		rjmp .L55
 423               	.L57:
  67:../../common/keymap.c ****                     return keycode_to_action(ACTION_NO);
 424               		.loc 1 67 0
 425 009a 8091 0000 		lds r24,keymap_config
 426 009e 84FD      		sbrc r24,4
 427 00a0 00C0      		rjmp .L56
  70:../../common/keymap.c ****             }
 428               		.loc 1 70 0
 429 00a2 87EE      		ldi r24,lo8(-25)
 430 00a4 00C0      		rjmp .L34
 431               	.LVL67:
 432               	.L48:
  74:../../common/keymap.c ****                 return keycode_to_action(KC_RALT);
 433               		.loc 1 74 0
 434 00a6 8091 0000 		lds r24,keymap_config
 435               	.LVL68:
 436 00aa 83FF      		sbrs r24,3
 437 00ac 00C0      		rjmp .L57
 438               	.L55:
  72:../../common/keymap.c ****         case KC_RGUI:
 439               		.loc 1 72 0
 440 00ae 86EE      		ldi r24,lo8(-26)
 441 00b0 00C0      		rjmp .L34
 442               	.LVL69:
 443               	.L42:
  82:../../common/keymap.c ****                 return keycode_to_action(KC_ESC);
 444               		.loc 1 82 0
 445 00b2 8091 0000 		lds r24,keymap_config
 446               	.LVL70:
 447 00b6 85FF      		sbrs r24,5
 448 00b8 00C0      		rjmp .L58
 449               	.L59:
  83:../../common/keymap.c ****             }
 450               		.loc 1 83 0
 451 00ba 89E2      		ldi r24,lo8(41)
 452 00bc 00C0      		rjmp .L34
 453               	.LVL71:
 454               	.L39:
  87:../../common/keymap.c ****                 return keycode_to_action(KC_GRAVE);
 455               		.loc 1 87 0
 456 00be 8091 0000 		lds r24,keymap_config
 457               	.LVL72:
 458 00c2 85FF      		sbrs r24,5
 459 00c4 00C0      		rjmp .L59
 460               	.L58:
  85:../../common/keymap.c ****         case KC_ESC:
 461               		.loc 1 85 0
 462 00c6 85E3      		ldi r24,lo8(53)
 463 00c8 00C0      		rjmp .L34
 464               	.LVL73:
 465               	.L37:
  92:../../common/keymap.c ****                 return keycode_to_action(KC_BSPACE);
 466               		.loc 1 92 0
 467 00ca 8091 0000 		lds r24,keymap_config
 468               	.LVL74:
 469 00ce 86FF      		sbrs r24,6
 470 00d0 00C0      		rjmp .L60
 471               	.L61:
  93:../../common/keymap.c ****             }
 472               		.loc 1 93 0
 473 00d2 8AE2      		ldi r24,lo8(42)
 474 00d4 00C0      		rjmp .L34
 475               	.LVL75:
 476               	.L40:
  97:../../common/keymap.c ****                 return keycode_to_action(KC_BSLASH);
 477               		.loc 1 97 0
 478 00d6 8091 0000 		lds r24,keymap_config
 479               	.LVL76:
 480 00da 86FF      		sbrs r24,6
 481 00dc 00C0      		rjmp .L61
 482               	.L60:
  95:../../common/keymap.c ****         case KC_BSPACE:
 483               		.loc 1 95 0
 484 00de 81E3      		ldi r24,lo8(49)
 485               	.L34:
 103:../../common/keymap.c ****     }
 486               		.loc 1 103 0
 487 00e0 0E94 0000 		call keycode_to_action
 488               	.LVL77:
 105:../../common/keymap.c **** 
 489               		.loc 1 105 0
 490 00e4 0895      		ret
 491               		.cfi_endproc
 492               	.LFE102:
 494               		.section	.text.action_get_macro,"ax",@progbits
 495               		.weak	action_get_macro
 497               	action_get_macro:
 498               	.LFB103:
 111:../../common/keymap.c ****     return MACRO_NONE;
 499               		.loc 1 111 0
 500               		.cfi_startproc
 501               	.LVL78:
 502               	/* prologue: function */
 503               	/* frame size = 0 */
 504               	/* stack size = 0 */
 505               	.L__stack_usage = 0
 113:../../common/keymap.c **** 
 506               		.loc 1 113 0
 507 0000 80E0      		ldi r24,0
 508 0002 90E0      		ldi r25,0
 509               	.LVL79:
 510 0004 0895      		ret
 511               		.cfi_endproc
 512               	.LFE103:
 514               		.section	.text.action_function,"ax",@progbits
 515               		.weak	action_function
 517               	action_function:
 518               	.LFB104:
 118:../../common/keymap.c **** }
 519               		.loc 1 118 0
 520               		.cfi_startproc
 521               	.LVL80:
 522               	/* prologue: function */
 523               	/* frame size = 0 */
 524               	/* stack size = 0 */
 525               	.L__stack_usage = 0
 526 0000 0895      		ret
 527               		.cfi_endproc
 528               	.LFE104:
 530               		.comm	keymap_config,1,1
 531               		.text
 532               	.Letext0:
 533               		.file 2 "/usr/local/Cellar/avr-gcc/4.9.2/avr/include/stdint.h"
 534               		.file 3 "../../common/keyboard.h"
 535               		.file 4 "../../common/keycode.h"
 536               		.file 5 "../../common/action_code.h"
 537               		.file 6 "../../common/action_macro.h"
 538               		.file 7 "../../common/action.h"
 539               		.file 8 "../../common/keymap.h"
 540               		.file 9 "../../protocol/lufa/LUFA-120730/LUFA/Drivers/USB/Core/USBTask.h"
DEFINED SYMBOLS
                            *ABS*:0000000000000000 keymap.c
/var/folders/67/vcrp0s4s10x_6hfx2yflxzbc0000gn/T//ccEOP3nm.s:2      *ABS*:000000000000003e __SP_H__
/var/folders/67/vcrp0s4s10x_6hfx2yflxzbc0000gn/T//ccEOP3nm.s:3      *ABS*:000000000000003d __SP_L__
/var/folders/67/vcrp0s4s10x_6hfx2yflxzbc0000gn/T//ccEOP3nm.s:4      *ABS*:000000000000003f __SREG__
/var/folders/67/vcrp0s4s10x_6hfx2yflxzbc0000gn/T//ccEOP3nm.s:5      *ABS*:0000000000000000 __tmp_reg__
/var/folders/67/vcrp0s4s10x_6hfx2yflxzbc0000gn/T//ccEOP3nm.s:6      *ABS*:0000000000000001 __zero_reg__
/var/folders/67/vcrp0s4s10x_6hfx2yflxzbc0000gn/T//ccEOP3nm.s:12     .text.keycode_to_action:0000000000000000 keycode_to_action
/var/folders/67/vcrp0s4s10x_6hfx2yflxzbc0000gn/T//ccEOP3nm.s:304    .text.action_for_key:0000000000000000 action_for_key
                            *COM*:0000000000000001 keymap_config
/var/folders/67/vcrp0s4s10x_6hfx2yflxzbc0000gn/T//ccEOP3nm.s:497    .text.action_get_macro:0000000000000000 action_get_macro
/var/folders/67/vcrp0s4s10x_6hfx2yflxzbc0000gn/T//ccEOP3nm.s:517    .text.action_function:0000000000000000 action_function

UNDEFINED SYMBOLS
keymap_key_to_keycode
keymap_fn_to_action
__do_clear_bss
